
leds.elf:     file format elf32-avr

Sections:
Idx Name          Size      VMA       LMA       File off  Algn
  0 .data         00000068  00800100  00002206  0000229a  2**0
                  CONTENTS, ALLOC, LOAD, DATA
  1 .text         00002206  00000000  00000000  00000094  2**1
                  CONTENTS, ALLOC, LOAD, READONLY, CODE
  2 .bss          00000310  00800168  00800168  00002302  2**0
                  ALLOC
  3 .comment      00000030  00000000  00000000  00002302  2**0
                  CONTENTS, READONLY
  4 .note.gnu.avr.deviceinfo 00000040  00000000  00000000  00002334  2**2
                  CONTENTS, READONLY
  5 .debug_aranges 00000468  00000000  00000000  00002374  2**0
                  CONTENTS, READONLY, DEBUGGING
  6 .debug_info   0000582f  00000000  00000000  000027dc  2**0
                  CONTENTS, READONLY, DEBUGGING
  7 .debug_abbrev 00001b31  00000000  00000000  0000800b  2**0
                  CONTENTS, READONLY, DEBUGGING
  8 .debug_line   00002d53  00000000  00000000  00009b3c  2**0
                  CONTENTS, READONLY, DEBUGGING
  9 .debug_frame  000007fc  00000000  00000000  0000c890  2**2
                  CONTENTS, READONLY, DEBUGGING
 10 .debug_str    0000216d  00000000  00000000  0000d08c  2**0
                  CONTENTS, READONLY, DEBUGGING
 11 .debug_loc    00001327  00000000  00000000  0000f1f9  2**0
                  CONTENTS, READONLY, DEBUGGING
 12 .debug_ranges 000003e8  00000000  00000000  00010520  2**0
                  CONTENTS, READONLY, DEBUGGING

Disassembly of section .text:

00000000 <__vectors>:
       0:	0c 94 55 00 	jmp	0xaa	; 0xaa <__ctors_end>
       4:	0c 94 72 00 	jmp	0xe4	; 0xe4 <__bad_interrupt>
       8:	0c 94 72 00 	jmp	0xe4	; 0xe4 <__bad_interrupt>
       c:	0c 94 72 00 	jmp	0xe4	; 0xe4 <__bad_interrupt>
      10:	0c 94 72 00 	jmp	0xe4	; 0xe4 <__bad_interrupt>
      14:	0c 94 72 00 	jmp	0xe4	; 0xe4 <__bad_interrupt>
      18:	0c 94 72 00 	jmp	0xe4	; 0xe4 <__bad_interrupt>
      1c:	0c 94 72 00 	jmp	0xe4	; 0xe4 <__bad_interrupt>
      20:	0c 94 72 00 	jmp	0xe4	; 0xe4 <__bad_interrupt>
      24:	0c 94 72 00 	jmp	0xe4	; 0xe4 <__bad_interrupt>
      28:	0c 94 72 00 	jmp	0xe4	; 0xe4 <__bad_interrupt>
      2c:	0c 94 72 00 	jmp	0xe4	; 0xe4 <__bad_interrupt>
      30:	0c 94 72 00 	jmp	0xe4	; 0xe4 <__bad_interrupt>
      34:	0c 94 ab 10 	jmp	0x2156	; 0x2156 <__vector_13>
      38:	0c 94 72 00 	jmp	0xe4	; 0xe4 <__bad_interrupt>
      3c:	0c 94 72 00 	jmp	0xe4	; 0xe4 <__bad_interrupt>
      40:	0c 94 72 00 	jmp	0xe4	; 0xe4 <__bad_interrupt>
      44:	0c 94 72 00 	jmp	0xe4	; 0xe4 <__bad_interrupt>
      48:	0c 94 72 00 	jmp	0xe4	; 0xe4 <__bad_interrupt>
      4c:	0c 94 72 00 	jmp	0xe4	; 0xe4 <__bad_interrupt>
      50:	0c 94 72 00 	jmp	0xe4	; 0xe4 <__bad_interrupt>
      54:	0c 94 72 00 	jmp	0xe4	; 0xe4 <__bad_interrupt>
      58:	0c 94 72 00 	jmp	0xe4	; 0xe4 <__bad_interrupt>
      5c:	0c 94 72 00 	jmp	0xe4	; 0xe4 <__bad_interrupt>
      60:	0c 94 72 00 	jmp	0xe4	; 0xe4 <__bad_interrupt>
      64:	0c 94 72 00 	jmp	0xe4	; 0xe4 <__bad_interrupt>
      68:	1e 01       	movw	r2, r28
      6a:	25 01       	movw	r4, r10
      6c:	2c 01       	movw	r4, r24
      6e:	33 01       	movw	r6, r6
      70:	40 01       	movw	r8, r0
      72:	4d 01       	movw	r8, r26
      74:	5a 01       	movw	r10, r20
      76:	6d 01       	movw	r12, r26
      78:	b0 01       	movw	r22, r0
      7a:	dd 01       	movw	r26, r26
      7c:	e3 01       	movw	r28, r6
      7e:	fe 01       	movw	r30, r28
      80:	2c 02       	muls	r18, r28
      82:	37 02       	muls	r19, r23
      84:	9e 02       	muls	r25, r30
      86:	dc 02       	muls	r29, r28
      88:	23 03       	mulsu	r18, r19
      8a:	62 02       	muls	r22, r18
      8c:	52 02       	muls	r21, r18
      8e:	66 02       	muls	r22, r22
      90:	56 02       	muls	r21, r22
      92:	72 02       	muls	r23, r18
      94:	5a 02       	muls	r21, r26
      96:	6a 02       	muls	r22, r26
      98:	5e 02       	muls	r21, r30
      9a:	6e 02       	muls	r22, r30
      9c:	ba 07       	cpc	r27, r26
      9e:	d4 07       	cpc	r29, r20
      a0:	e0 07       	cpc	r30, r16
      a2:	f6 07       	cpc	r31, r22
      a4:	11 08       	sbc	r1, r1
      a6:	2c 08       	sbc	r2, r12
      a8:	50 08       	sbc	r5, r0

000000aa <__ctors_end>:
      aa:	11 24       	eor	r1, r1
      ac:	1f be       	out	0x3f, r1	; 63
      ae:	cf ef       	ldi	r28, 0xFF	; 255
      b0:	d8 e0       	ldi	r29, 0x08	; 8
      b2:	de bf       	out	0x3e, r29	; 62
      b4:	cd bf       	out	0x3d, r28	; 61

000000b6 <__do_copy_data>:
      b6:	11 e0       	ldi	r17, 0x01	; 1
      b8:	a0 e0       	ldi	r26, 0x00	; 0
      ba:	b1 e0       	ldi	r27, 0x01	; 1
      bc:	e6 e0       	ldi	r30, 0x06	; 6
      be:	f2 e2       	ldi	r31, 0x22	; 34
      c0:	02 c0       	rjmp	.+4      	; 0xc6 <__do_copy_data+0x10>
      c2:	05 90       	lpm	r0, Z+
      c4:	0d 92       	st	X+, r0
      c6:	a8 36       	cpi	r26, 0x68	; 104
      c8:	b1 07       	cpc	r27, r17
      ca:	d9 f7       	brne	.-10     	; 0xc2 <__do_copy_data+0xc>

000000cc <__do_clear_bss>:
      cc:	24 e0       	ldi	r18, 0x04	; 4
      ce:	a8 e6       	ldi	r26, 0x68	; 104
      d0:	b1 e0       	ldi	r27, 0x01	; 1
      d2:	01 c0       	rjmp	.+2      	; 0xd6 <.do_clear_bss_start>

000000d4 <.do_clear_bss_loop>:
      d4:	1d 92       	st	X+, r1

000000d6 <.do_clear_bss_start>:
      d6:	a8 37       	cpi	r26, 0x78	; 120
      d8:	b2 07       	cpc	r27, r18
      da:	e1 f7       	brne	.-8      	; 0xd4 <.do_clear_bss_loop>
      dc:	0e 94 2e 03 	call	0x65c	; 0x65c <main>
      e0:	0c 94 01 11 	jmp	0x2202	; 0x2202 <_exit>

000000e4 <__bad_interrupt>:
      e4:	0c 94 00 00 	jmp	0	; 0x0 <__vectors>

000000e8 <applInitialize>:

//=====================================================================================================================
//-------------------------------------- Public Functions -------------------------------------------------------------
//=====================================================================================================================
void applInitialize(){
	gameMode = NO_GAME_SELECTED;
      e8:	10 92 69 01 	sts	0x0169, r1	; 0x800169 <gameMode>
	keyPressed = INVALID_KEY;
      ec:	89 e0       	ldi	r24, 0x09	; 9
      ee:	80 93 6a 01 	sts	0x016A, r24	; 0x80016a <keyPressed>
      f2:	08 95       	ret

000000f4 <resetGameMode>:
}

void resetGameMode(){
	gameMode = NO_GAME_SELECTED;
      f4:	10 92 69 01 	sts	0x0169, r1	; 0x800169 <gameMode>
	keyPressed = INVALID_KEY;
      f8:	89 e0       	ldi	r24, 0x09	; 9
      fa:	80 93 6a 01 	sts	0x016A, r24	; 0x80016a <keyPressed>
      fe:	08 95       	ret

00000100 <gameSelect>:
			break;
	}
}

void gameSelect(void){
	keyPressed = getKeyBuffer();
     100:	0e 94 d5 0c 	call	0x19aa	; 0x19aa <getKeyBuffer>
     104:	80 93 6a 01 	sts	0x016A, r24	; 0x80016a <keyPressed>
	switch(keyPressed){
     108:	82 30       	cpi	r24, 0x02	; 2
     10a:	99 f0       	breq	.+38     	; 0x132 <gameSelect+0x32>
     10c:	28 f4       	brcc	.+10     	; 0x118 <gameSelect+0x18>
     10e:	88 23       	and	r24, r24
     110:	41 f0       	breq	.+16     	; 0x122 <gameSelect+0x22>
     112:	81 30       	cpi	r24, 0x01	; 1
     114:	51 f0       	breq	.+20     	; 0x12a <gameSelect+0x2a>
     116:	08 95       	ret
     118:	83 30       	cpi	r24, 0x03	; 3
     11a:	79 f0       	breq	.+30     	; 0x13a <gameSelect+0x3a>
     11c:	88 30       	cpi	r24, 0x08	; 8
     11e:	89 f0       	breq	.+34     	; 0x142 <gameSelect+0x42>
     120:	08 95       	ret
		case KEY_1:
		gameMode = TIC_TAC_TOE;
     122:	81 e0       	ldi	r24, 0x01	; 1
     124:	80 93 69 01 	sts	0x0169, r24	; 0x800169 <gameMode>
		break;
     128:	08 95       	ret
		
		case KEY_2:
		gameMode = GENIUS;
     12a:	82 e0       	ldi	r24, 0x02	; 2
     12c:	80 93 69 01 	sts	0x0169, r24	; 0x800169 <gameMode>
		break;
     130:	08 95       	ret
		
		case KEY_3:
		gameMode = GENIUS_HARD_MODE;
     132:	83 e0       	ldi	r24, 0x03	; 3
     134:	80 93 69 01 	sts	0x0169, r24	; 0x800169 <gameMode>
		break;
     138:	08 95       	ret
		
		case KEY_4:
		gameMode = SNAKE;
     13a:	84 e0       	ldi	r24, 0x04	; 4
     13c:	80 93 69 01 	sts	0x0169, r24	; 0x800169 <gameMode>
		break;
     140:	08 95       	ret
		
		case KEY_9:
		gameMode = DEBUGGER;
     142:	86 e0       	ldi	r24, 0x06	; 6
     144:	80 93 69 01 	sts	0x0169, r24	; 0x800169 <gameMode>
     148:	08 95       	ret

0000014a <applHander>:
	keyPressed = INVALID_KEY;
}

void applHander(void){		
	
	switch(gameMode){
     14a:	80 91 69 01 	lds	r24, 0x0169	; 0x800169 <gameMode>
     14e:	82 30       	cpi	r24, 0x02	; 2
     150:	91 f0       	breq	.+36     	; 0x176 <applHander+0x2c>
     152:	28 f4       	brcc	.+10     	; 0x15e <applHander+0x14>
     154:	88 23       	and	r24, r24
     156:	49 f0       	breq	.+18     	; 0x16a <applHander+0x20>
     158:	81 30       	cpi	r24, 0x01	; 1
     15a:	51 f0       	breq	.+20     	; 0x170 <applHander+0x26>
     15c:	08 95       	ret
     15e:	84 30       	cpi	r24, 0x04	; 4
     160:	91 f0       	breq	.+36     	; 0x186 <applHander+0x3c>
     162:	68 f0       	brcs	.+26     	; 0x17e <applHander+0x34>
     164:	86 30       	cpi	r24, 0x06	; 6
     166:	91 f0       	breq	.+36     	; 0x18c <applHander+0x42>
     168:	08 95       	ret
		case NO_GAME_SELECTED:
			gameSelect();
     16a:	0e 94 80 00 	call	0x100	; 0x100 <gameSelect>
			break;
     16e:	08 95       	ret
			
		case TIC_TAC_TOE:
			tictactoeHandler();
     170:	0e 94 a7 07 	call	0xf4e	; 0xf4e <tictactoeHandler>
			break;
     174:	08 95       	ret
				
		case GENIUS:
			geniusHandler(0); //flag hard mode clear
     176:	80 e0       	ldi	r24, 0x00	; 0
     178:	0e 94 9b 01 	call	0x336	; 0x336 <geniusHandler>
			break;
     17c:	08 95       	ret
		
		case GENIUS_HARD_MODE:
			geniusHandler(1); //flag hard mode set
     17e:	81 e0       	ldi	r24, 0x01	; 1
     180:	0e 94 9b 01 	call	0x336	; 0x336 <geniusHandler>
			break;
     184:	08 95       	ret
			
		case SNAKE:
			snakeHandler();
     186:	0e 94 b4 05 	call	0xb68	; 0xb68 <snakeHandler>
			break;
     18a:	08 95       	ret
			
		case DEBUGGER:
			debuggerHandler();
     18c:	0e 94 d5 00 	call	0x1aa	; 0x1aa <debuggerHandler>
     190:	08 95       	ret

00000192 <debuggerInitialize>:
unsigned char debugCount;



void debuggerInitialize(void){
	debuggerType = NO_DEBUG_SELECTED;
     192:	10 92 6e 01 	sts	0x016E, r1	; 0x80016e <debuggerType>
	debuggerStep = DEBUGGER_FIRST_STEP;
     196:	10 92 70 01 	sts	0x0170, r1	; 0x800170 <debuggerStep>
	inputKey = INVALID_KEY;
     19a:	89 e0       	ldi	r24, 0x09	; 9
     19c:	80 93 71 01 	sts	0x0171, r24	; 0x800171 <inputKey>
	debugNote = 0;	
     1a0:	10 92 6d 01 	sts	0x016D, r1	; 0x80016d <debugNote>
	debugCount = 0;
     1a4:	10 92 6f 01 	sts	0x016F, r1	; 0x80016f <debugCount>
     1a8:	08 95       	ret

000001aa <debuggerHandler>:
}



void debuggerHandler(void){
     1aa:	0f 93       	push	r16
     1ac:	1f 93       	push	r17
     1ae:	cf 93       	push	r28
     1b0:	df 93       	push	r29
	cli();
     1b2:	f8 94       	cli
	switch(debuggerStep){
     1b4:	80 91 70 01 	lds	r24, 0x0170	; 0x800170 <debuggerStep>
     1b8:	88 23       	and	r24, r24
     1ba:	19 f1       	breq	.+70     	; 0x202 <debuggerHandler+0x58>
     1bc:	25 c0       	rjmp	.+74     	; 0x208 <debuggerHandler+0x5e>
				for(unsigned char __Cor = 0; __Cor < 3; __Cor++){
					
					for(unsigned char __Intensidade = 255; __Intensidade >1;__Intensidade-=2){
						for(unsigned char __Coluna = 8; __Coluna > 0; __Coluna--){
							for(unsigned char __Linha = 8; __Linha > 0; __Linha--){
								changeIndividual(__Linha, __Coluna, __Cor, __Intensidade);
     1be:	21 2f       	mov	r18, r17
     1c0:	40 2f       	mov	r20, r16
     1c2:	6d 2f       	mov	r22, r29
     1c4:	8c 2f       	mov	r24, r28
     1c6:	0e 94 75 0b 	call	0x16ea	; 0x16ea <changeIndividual>
				
				for(unsigned char __Cor = 0; __Cor < 3; __Cor++){
					
					for(unsigned char __Intensidade = 255; __Intensidade >1;__Intensidade-=2){
						for(unsigned char __Coluna = 8; __Coluna > 0; __Coluna--){
							for(unsigned char __Linha = 8; __Linha > 0; __Linha--){
     1ca:	c1 50       	subi	r28, 0x01	; 1
     1cc:	01 c0       	rjmp	.+2      	; 0x1d0 <debuggerHandler+0x26>
     1ce:	c8 e0       	ldi	r28, 0x08	; 8
     1d0:	c1 11       	cpse	r28, r1
     1d2:	f5 cf       	rjmp	.-22     	; 0x1be <debuggerHandler+0x14>
								changeIndividual(__Linha, __Coluna, __Cor, __Intensidade);
							}
							sendDataToDisplay(matrixLastAddress);
     1d4:	80 ef       	ldi	r24, 0xF0	; 240
     1d6:	93 e0       	ldi	r25, 0x03	; 3
     1d8:	0e 94 30 0a 	call	0x1460	; 0x1460 <sendDataToDisplay>
							cli();
     1dc:	f8 94       	cli
	#else
		//round up by default
		__ticks_dc = (uint32_t)(ceil(fabs(__tmp)));
	#endif

	__builtin_avr_delay_cycles(__ticks_dc);
     1de:	83 ef       	ldi	r24, 0xF3	; 243
     1e0:	91 e0       	ldi	r25, 0x01	; 1
     1e2:	01 97       	sbiw	r24, 0x01	; 1
     1e4:	f1 f7       	brne	.-4      	; 0x1e2 <debuggerHandler+0x38>
     1e6:	00 c0       	rjmp	.+0      	; 0x1e8 <debuggerHandler+0x3e>
     1e8:	00 00       	nop
			while(1){
				
				for(unsigned char __Cor = 0; __Cor < 3; __Cor++){
					
					for(unsigned char __Intensidade = 255; __Intensidade >1;__Intensidade-=2){
						for(unsigned char __Coluna = 8; __Coluna > 0; __Coluna--){
     1ea:	d1 50       	subi	r29, 0x01	; 1
     1ec:	01 c0       	rjmp	.+2      	; 0x1f0 <debuggerHandler+0x46>
     1ee:	d8 e0       	ldi	r29, 0x08	; 8
     1f0:	d1 11       	cpse	r29, r1
     1f2:	ed cf       	rjmp	.-38     	; 0x1ce <debuggerHandler+0x24>
		case DEBUGGER_FIRST_STEP:
			while(1){
				
				for(unsigned char __Cor = 0; __Cor < 3; __Cor++){
					
					for(unsigned char __Intensidade = 255; __Intensidade >1;__Intensidade-=2){
     1f4:	12 50       	subi	r17, 0x02	; 2
     1f6:	01 c0       	rjmp	.+2      	; 0x1fa <debuggerHandler+0x50>
     1f8:	1f ef       	ldi	r17, 0xFF	; 255
     1fa:	12 30       	cpi	r17, 0x02	; 2
     1fc:	c0 f7       	brcc	.-16     	; 0x1ee <debuggerHandler+0x44>
	cli();
	switch(debuggerStep){
		case DEBUGGER_FIRST_STEP:
			while(1){
				
				for(unsigned char __Cor = 0; __Cor < 3; __Cor++){
     1fe:	0f 5f       	subi	r16, 0xFF	; 255
     200:	01 c0       	rjmp	.+2      	; 0x204 <debuggerHandler+0x5a>



void debuggerHandler(void){
	cli();
	switch(debuggerStep){
     202:	00 e0       	ldi	r16, 0x00	; 0
		case DEBUGGER_FIRST_STEP:
			while(1){
				
				for(unsigned char __Cor = 0; __Cor < 3; __Cor++){
     204:	03 30       	cpi	r16, 0x03	; 3
     206:	c0 f3       	brcs	.-16     	; 0x1f8 <debuggerHandler+0x4e>
			
		default:
			break;
		}
	}
}
     208:	df 91       	pop	r29
     20a:	cf 91       	pop	r28
     20c:	1f 91       	pop	r17
     20e:	0f 91       	pop	r16
     210:	08 95       	ret

00000212 <geniusInitialize>:
     212:	10 92 8b 01 	sts	0x018B, r1	; 0x80018b <geniusCurrentTurn>
     216:	10 92 77 01 	sts	0x0177, r1	; 0x800177 <geniusStep>
     21a:	08 95       	ret

0000021c <geniusShowData>:
     21c:	cf 93       	push	r28
     21e:	c8 2f       	mov	r28, r24
     220:	0e 94 49 0c 	call	0x1892	; 0x1892 <clearDisplay>
     224:	8c 2f       	mov	r24, r28
     226:	90 e0       	ldi	r25, 0x00	; 0
     228:	fc 01       	movw	r30, r24
     22a:	31 97       	sbiw	r30, 0x01	; 1
     22c:	e8 30       	cpi	r30, 0x08	; 8
     22e:	f1 05       	cpc	r31, r1
     230:	08 f0       	brcs	.+2      	; 0x234 <geniusShowData+0x18>
     232:	65 c0       	rjmp	.+202    	; 0x2fe <geniusShowData+0xe2>
     234:	ec 5c       	subi	r30, 0xCC	; 204
     236:	ff 4f       	sbci	r31, 0xFF	; 255
     238:	0c 94 d8 10 	jmp	0x21b0	; 0x21b0 <__tablejump2__>
     23c:	2f e1       	ldi	r18, 0x1F	; 31
     23e:	40 e0       	ldi	r20, 0x00	; 0
     240:	63 e0       	ldi	r22, 0x03	; 3
     242:	80 e0       	ldi	r24, 0x00	; 0
     244:	0e 94 98 0b 	call	0x1730	; 0x1730 <changeHouse>
     248:	5a c0       	rjmp	.+180    	; 0x2fe <geniusShowData+0xe2>
     24a:	2f e1       	ldi	r18, 0x1F	; 31
     24c:	41 e0       	ldi	r20, 0x01	; 1
     24e:	60 e0       	ldi	r22, 0x00	; 0
     250:	83 e0       	ldi	r24, 0x03	; 3
     252:	0e 94 98 0b 	call	0x1730	; 0x1730 <changeHouse>
     256:	53 c0       	rjmp	.+166    	; 0x2fe <geniusShowData+0xe2>
     258:	2f e1       	ldi	r18, 0x1F	; 31
     25a:	42 e0       	ldi	r20, 0x02	; 2
     25c:	66 e0       	ldi	r22, 0x06	; 6
     25e:	83 e0       	ldi	r24, 0x03	; 3
     260:	0e 94 98 0b 	call	0x1730	; 0x1730 <changeHouse>
     264:	4c c0       	rjmp	.+152    	; 0x2fe <geniusShowData+0xe2>
     266:	2f e1       	ldi	r18, 0x1F	; 31
     268:	42 e0       	ldi	r20, 0x02	; 2
     26a:	63 e0       	ldi	r22, 0x03	; 3
     26c:	86 e0       	ldi	r24, 0x06	; 6
     26e:	0e 94 98 0b 	call	0x1730	; 0x1730 <changeHouse>
     272:	2f e1       	ldi	r18, 0x1F	; 31
     274:	41 e0       	ldi	r20, 0x01	; 1
     276:	63 e0       	ldi	r22, 0x03	; 3
     278:	86 e0       	ldi	r24, 0x06	; 6
     27a:	0e 94 98 0b 	call	0x1730	; 0x1730 <changeHouse>
     27e:	3f c0       	rjmp	.+126    	; 0x2fe <geniusShowData+0xe2>
     280:	2f e1       	ldi	r18, 0x1F	; 31
     282:	42 e0       	ldi	r20, 0x02	; 2
     284:	60 e0       	ldi	r22, 0x00	; 0
     286:	80 e0       	ldi	r24, 0x00	; 0
     288:	0e 94 98 0b 	call	0x1730	; 0x1730 <changeHouse>
     28c:	2f e1       	ldi	r18, 0x1F	; 31
     28e:	40 e0       	ldi	r20, 0x00	; 0
     290:	60 e0       	ldi	r22, 0x00	; 0
     292:	80 e0       	ldi	r24, 0x00	; 0
     294:	0e 94 98 0b 	call	0x1730	; 0x1730 <changeHouse>
     298:	32 c0       	rjmp	.+100    	; 0x2fe <geniusShowData+0xe2>
     29a:	28 e1       	ldi	r18, 0x18	; 24
     29c:	41 e0       	ldi	r20, 0x01	; 1
     29e:	66 e0       	ldi	r22, 0x06	; 6
     2a0:	80 e0       	ldi	r24, 0x00	; 0
     2a2:	0e 94 98 0b 	call	0x1730	; 0x1730 <changeHouse>
     2a6:	28 e1       	ldi	r18, 0x18	; 24
     2a8:	40 e0       	ldi	r20, 0x00	; 0
     2aa:	66 e0       	ldi	r22, 0x06	; 6
     2ac:	80 e0       	ldi	r24, 0x00	; 0
     2ae:	0e 94 98 0b 	call	0x1730	; 0x1730 <changeHouse>
     2b2:	25 c0       	rjmp	.+74     	; 0x2fe <geniusShowData+0xe2>
     2b4:	20 e2       	ldi	r18, 0x20	; 32
     2b6:	41 e0       	ldi	r20, 0x01	; 1
     2b8:	60 e0       	ldi	r22, 0x00	; 0
     2ba:	86 e0       	ldi	r24, 0x06	; 6
     2bc:	0e 94 98 0b 	call	0x1730	; 0x1730 <changeHouse>
     2c0:	27 e0       	ldi	r18, 0x07	; 7
     2c2:	40 e0       	ldi	r20, 0x00	; 0
     2c4:	60 e0       	ldi	r22, 0x00	; 0
     2c6:	86 e0       	ldi	r24, 0x06	; 6
     2c8:	0e 94 98 0b 	call	0x1730	; 0x1730 <changeHouse>
     2cc:	27 e0       	ldi	r18, 0x07	; 7
     2ce:	42 e0       	ldi	r20, 0x02	; 2
     2d0:	60 e0       	ldi	r22, 0x00	; 0
     2d2:	86 e0       	ldi	r24, 0x06	; 6
     2d4:	0e 94 98 0b 	call	0x1730	; 0x1730 <changeHouse>
     2d8:	12 c0       	rjmp	.+36     	; 0x2fe <geniusShowData+0xe2>
     2da:	2f e1       	ldi	r18, 0x1F	; 31
     2dc:	41 e0       	ldi	r20, 0x01	; 1
     2de:	66 e0       	ldi	r22, 0x06	; 6
     2e0:	86 e0       	ldi	r24, 0x06	; 6
     2e2:	0e 94 98 0b 	call	0x1730	; 0x1730 <changeHouse>
     2e6:	2f e1       	ldi	r18, 0x1F	; 31
     2e8:	40 e0       	ldi	r20, 0x00	; 0
     2ea:	66 e0       	ldi	r22, 0x06	; 6
     2ec:	86 e0       	ldi	r24, 0x06	; 6
     2ee:	0e 94 98 0b 	call	0x1730	; 0x1730 <changeHouse>
     2f2:	2f e1       	ldi	r18, 0x1F	; 31
     2f4:	42 e0       	ldi	r20, 0x02	; 2
     2f6:	66 e0       	ldi	r22, 0x06	; 6
     2f8:	86 e0       	ldi	r24, 0x06	; 6
     2fa:	0e 94 98 0b 	call	0x1730	; 0x1730 <changeHouse>
     2fe:	cf 91       	pop	r28
     300:	08 95       	ret

00000302 <clearGeniusVector>:
     302:	89 e7       	ldi	r24, 0x79	; 121
     304:	91 e0       	ldi	r25, 0x01	; 1
     306:	90 93 76 01 	sts	0x0176, r25	; 0x800176 <geniusPt+0x1>
     30a:	80 93 75 01 	sts	0x0175, r24	; 0x800175 <geniusPt>
     30e:	28 e0       	ldi	r18, 0x08	; 8
     310:	0f c0       	rjmp	.+30     	; 0x330 <clearGeniusVector+0x2e>
     312:	e0 91 75 01 	lds	r30, 0x0175	; 0x800175 <geniusPt>
     316:	f0 91 76 01 	lds	r31, 0x0176	; 0x800176 <geniusPt+0x1>
     31a:	10 82       	st	Z, r1
     31c:	21 50       	subi	r18, 0x01	; 1
     31e:	80 91 75 01 	lds	r24, 0x0175	; 0x800175 <geniusPt>
     322:	90 91 76 01 	lds	r25, 0x0176	; 0x800176 <geniusPt+0x1>
     326:	01 96       	adiw	r24, 0x01	; 1
     328:	90 93 76 01 	sts	0x0176, r25	; 0x800176 <geniusPt+0x1>
     32c:	80 93 75 01 	sts	0x0175, r24	; 0x800175 <geniusPt>
     330:	21 11       	cpse	r18, r1
     332:	ef cf       	rjmp	.-34     	; 0x312 <clearGeniusVector+0x10>
     334:	08 95       	ret

00000336 <geniusHandler>:
     336:	cf 93       	push	r28
     338:	df 93       	push	r29
     33a:	c8 2f       	mov	r28, r24
     33c:	83 e0       	ldi	r24, 0x03	; 3
     33e:	0e 94 a0 10 	call	0x2140	; 0x2140 <Timer__MsGetStatus>
     342:	81 11       	cpse	r24, r1
     344:	88 c1       	rjmp	.+784    	; 0x656 <__EEPROM_REGION_LENGTH__+0x256>
     346:	e0 91 77 01 	lds	r30, 0x0177	; 0x800177 <geniusStep>
     34a:	8e 2f       	mov	r24, r30
     34c:	90 e0       	ldi	r25, 0x00	; 0
     34e:	89 30       	cpi	r24, 0x09	; 9
     350:	91 05       	cpc	r25, r1
     352:	08 f0       	brcs	.+2      	; 0x356 <geniusHandler+0x20>
     354:	80 c1       	rjmp	.+768    	; 0x656 <__EEPROM_REGION_LENGTH__+0x256>
     356:	fc 01       	movw	r30, r24
     358:	e4 5c       	subi	r30, 0xC4	; 196
     35a:	ff 4f       	sbci	r31, 0xFF	; 255
     35c:	0c 94 d8 10 	jmp	0x21b0	; 0x21b0 <__tablejump2__>
     360:	10 92 8b 01 	sts	0x018B, r1	; 0x80018b <geniusCurrentTurn>
     364:	10 92 78 01 	sts	0x0178, r1	; 0x800178 <geniusUserCounter>
     368:	10 92 8c 01 	sts	0x018C, r1	; 0x80018c <desligarDisplay>
     36c:	10 92 72 01 	sts	0x0172, r1	; 0x800172 <geniusUpdateInputFlag>
     370:	10 92 74 01 	sts	0x0174, r1	; 0x800174 <geniusConclusion>
     374:	89 e0       	ldi	r24, 0x09	; 9
     376:	80 93 8d 01 	sts	0x018D, r24	; 0x80018d <geniusKeyPressed>
     37a:	10 92 89 01 	sts	0x0189, r1	; 0x800189 <geniusUserInputColor>
     37e:	0e 94 81 01 	call	0x302	; 0x302 <clearGeniusVector>
     382:	cc 23       	and	r28, r28
     384:	49 f0       	breq	.+18     	; 0x398 <geniusHandler+0x62>
     386:	6f e0       	ldi	r22, 0x0F	; 15
     388:	82 e0       	ldi	r24, 0x02	; 2
     38a:	0e 94 22 0c 	call	0x1844	; 0x1844 <setDisplay>
     38e:	6f e1       	ldi	r22, 0x1F	; 31
     390:	81 e0       	ldi	r24, 0x01	; 1
     392:	0e 94 22 0c 	call	0x1844	; 0x1844 <setDisplay>
     396:	08 c0       	rjmp	.+16     	; 0x3a8 <geniusHandler+0x72>
     398:	6f e1       	ldi	r22, 0x1F	; 31
     39a:	82 e0       	ldi	r24, 0x02	; 2
     39c:	0e 94 22 0c 	call	0x1844	; 0x1844 <setDisplay>
     3a0:	6f e1       	ldi	r22, 0x1F	; 31
     3a2:	81 e0       	ldi	r24, 0x01	; 1
     3a4:	0e 94 22 0c 	call	0x1844	; 0x1844 <setDisplay>
     3a8:	64 ef       	ldi	r22, 0xF4	; 244
     3aa:	71 e0       	ldi	r23, 0x01	; 1
     3ac:	83 e0       	ldi	r24, 0x03	; 3
     3ae:	0e 94 73 10 	call	0x20e6	; 0x20e6 <Timer__MsSet>
     3b2:	81 e0       	ldi	r24, 0x01	; 1
     3b4:	80 93 77 01 	sts	0x0177, r24	; 0x800177 <geniusStep>
     3b8:	4e c1       	rjmp	.+668    	; 0x656 <__EEPROM_REGION_LENGTH__+0x256>
     3ba:	0e 94 49 0c 	call	0x1892	; 0x1892 <clearDisplay>
     3be:	82 e0       	ldi	r24, 0x02	; 2
     3c0:	80 93 77 01 	sts	0x0177, r24	; 0x800177 <geniusStep>
     3c4:	48 c1       	rjmp	.+656    	; 0x656 <__EEPROM_REGION_LENGTH__+0x256>
     3c6:	cc 23       	and	r28, r28
     3c8:	51 f0       	breq	.+20     	; 0x3de <geniusHandler+0xa8>
     3ca:	c0 91 8b 01 	lds	r28, 0x018B	; 0x80018b <geniusCurrentTurn>
     3ce:	d0 e0       	ldi	r29, 0x00	; 0
     3d0:	81 e0       	ldi	r24, 0x01	; 1
     3d2:	0e 94 08 0e 	call	0x1c10	; 0x1c10 <getRandomNumber>
     3d6:	c7 58       	subi	r28, 0x87	; 135
     3d8:	de 4f       	sbci	r29, 0xFE	; 254
     3da:	88 83       	st	Y, r24
     3dc:	09 c0       	rjmp	.+18     	; 0x3f0 <geniusHandler+0xba>
     3de:	c0 91 8b 01 	lds	r28, 0x018B	; 0x80018b <geniusCurrentTurn>
     3e2:	d0 e0       	ldi	r29, 0x00	; 0
     3e4:	80 e0       	ldi	r24, 0x00	; 0
     3e6:	0e 94 08 0e 	call	0x1c10	; 0x1c10 <getRandomNumber>
     3ea:	c7 58       	subi	r28, 0x87	; 135
     3ec:	de 4f       	sbci	r29, 0xFE	; 254
     3ee:	88 83       	st	Y, r24
     3f0:	10 92 8a 01 	sts	0x018A, r1	; 0x80018a <geniusTurnCounter>
     3f4:	83 e0       	ldi	r24, 0x03	; 3
     3f6:	80 93 77 01 	sts	0x0177, r24	; 0x800177 <geniusStep>
     3fa:	2d c1       	rjmp	.+602    	; 0x656 <__EEPROM_REGION_LENGTH__+0x256>
     3fc:	e0 91 8a 01 	lds	r30, 0x018A	; 0x80018a <geniusTurnCounter>
     400:	80 91 8b 01 	lds	r24, 0x018B	; 0x80018b <geniusCurrentTurn>
     404:	8e 17       	cp	r24, r30
     406:	20 f1       	brcs	.+72     	; 0x450 <__EEPROM_REGION_LENGTH__+0x50>
     408:	80 91 8c 01 	lds	r24, 0x018C	; 0x80018c <desligarDisplay>
     40c:	81 11       	cpse	r24, r1
     40e:	16 c0       	rjmp	.+44     	; 0x43c <__EEPROM_REGION_LENGTH__+0x3c>
     410:	f0 e0       	ldi	r31, 0x00	; 0
     412:	e7 58       	subi	r30, 0x87	; 135
     414:	fe 4f       	sbci	r31, 0xFE	; 254
     416:	80 81       	ld	r24, Z
     418:	80 93 73 01 	sts	0x0173, r24	; 0x800173 <geniusActualColor>
     41c:	0e 94 0e 01 	call	0x21c	; 0x21c <geniusShowData>
     420:	80 91 8a 01 	lds	r24, 0x018A	; 0x80018a <geniusTurnCounter>
     424:	8f 5f       	subi	r24, 0xFF	; 255
     426:	80 93 8a 01 	sts	0x018A, r24	; 0x80018a <geniusTurnCounter>
     42a:	64 ef       	ldi	r22, 0xF4	; 244
     42c:	71 e0       	ldi	r23, 0x01	; 1
     42e:	83 e0       	ldi	r24, 0x03	; 3
     430:	0e 94 73 10 	call	0x20e6	; 0x20e6 <Timer__MsSet>
     434:	81 e0       	ldi	r24, 0x01	; 1
     436:	80 93 8c 01 	sts	0x018C, r24	; 0x80018c <desligarDisplay>
     43a:	0d c1       	rjmp	.+538    	; 0x656 <__EEPROM_REGION_LENGTH__+0x256>
     43c:	0e 94 49 0c 	call	0x1892	; 0x1892 <clearDisplay>
     440:	68 ec       	ldi	r22, 0xC8	; 200
     442:	70 e0       	ldi	r23, 0x00	; 0
     444:	83 e0       	ldi	r24, 0x03	; 3
     446:	0e 94 73 10 	call	0x20e6	; 0x20e6 <Timer__MsSet>
     44a:	10 92 8c 01 	sts	0x018C, r1	; 0x80018c <desligarDisplay>
     44e:	03 c1       	rjmp	.+518    	; 0x656 <__EEPROM_REGION_LENGTH__+0x256>
     450:	84 e0       	ldi	r24, 0x04	; 4
     452:	80 93 77 01 	sts	0x0177, r24	; 0x800177 <geniusStep>
     456:	ff c0       	rjmp	.+510    	; 0x656 <__EEPROM_REGION_LENGTH__+0x256>
     458:	0e 94 49 0c 	call	0x1892	; 0x1892 <clearDisplay>
     45c:	68 e8       	ldi	r22, 0x88	; 136
     45e:	73 e1       	ldi	r23, 0x13	; 19
     460:	84 e0       	ldi	r24, 0x04	; 4
     462:	0e 94 73 10 	call	0x20e6	; 0x20e6 <Timer__MsSet>
     466:	85 e0       	ldi	r24, 0x05	; 5
     468:	80 93 77 01 	sts	0x0177, r24	; 0x800177 <geniusStep>
     46c:	f4 c0       	rjmp	.+488    	; 0x656 <__EEPROM_REGION_LENGTH__+0x256>
     46e:	0e 94 d5 0c 	call	0x19aa	; 0x19aa <getKeyBuffer>
     472:	89 30       	cpi	r24, 0x09	; 9
     474:	19 f4       	brne	.+6      	; 0x47c <__EEPROM_REGION_LENGTH__+0x7c>
     476:	81 e0       	ldi	r24, 0x01	; 1
     478:	80 93 72 01 	sts	0x0172, r24	; 0x800172 <geniusUpdateInputFlag>
     47c:	80 91 72 01 	lds	r24, 0x0172	; 0x800172 <geniusUpdateInputFlag>
     480:	88 23       	and	r24, r24
     482:	09 f4       	brne	.+2      	; 0x486 <__EEPROM_REGION_LENGTH__+0x86>
     484:	4f c0       	rjmp	.+158    	; 0x524 <__EEPROM_REGION_LENGTH__+0x124>
     486:	0e 94 d5 0c 	call	0x19aa	; 0x19aa <getKeyBuffer>
     48a:	80 93 8d 01 	sts	0x018D, r24	; 0x80018d <geniusKeyPressed>
     48e:	cc 23       	and	r28, r28
     490:	61 f1       	breq	.+88     	; 0x4ea <__EEPROM_REGION_LENGTH__+0xea>
     492:	90 e0       	ldi	r25, 0x00	; 0
     494:	89 30       	cpi	r24, 0x09	; 9
     496:	91 05       	cpc	r25, r1
     498:	28 f5       	brcc	.+74     	; 0x4e4 <__EEPROM_REGION_LENGTH__+0xe4>
     49a:	fc 01       	movw	r30, r24
     49c:	eb 5b       	subi	r30, 0xBB	; 187
     49e:	ff 4f       	sbci	r31, 0xFF	; 255
     4a0:	0c 94 d8 10 	jmp	0x21b0	; 0x21b0 <__tablejump2__>
     4a4:	81 e0       	ldi	r24, 0x01	; 1
     4a6:	80 93 89 01 	sts	0x0189, r24	; 0x800189 <geniusUserInputColor>
     4aa:	3c c0       	rjmp	.+120    	; 0x524 <__EEPROM_REGION_LENGTH__+0x124>
     4ac:	82 e0       	ldi	r24, 0x02	; 2
     4ae:	80 93 89 01 	sts	0x0189, r24	; 0x800189 <geniusUserInputColor>
     4b2:	38 c0       	rjmp	.+112    	; 0x524 <__EEPROM_REGION_LENGTH__+0x124>
     4b4:	83 e0       	ldi	r24, 0x03	; 3
     4b6:	80 93 89 01 	sts	0x0189, r24	; 0x800189 <geniusUserInputColor>
     4ba:	34 c0       	rjmp	.+104    	; 0x524 <__EEPROM_REGION_LENGTH__+0x124>
     4bc:	84 e0       	ldi	r24, 0x04	; 4
     4be:	80 93 89 01 	sts	0x0189, r24	; 0x800189 <geniusUserInputColor>
     4c2:	30 c0       	rjmp	.+96     	; 0x524 <__EEPROM_REGION_LENGTH__+0x124>
     4c4:	85 e0       	ldi	r24, 0x05	; 5
     4c6:	80 93 89 01 	sts	0x0189, r24	; 0x800189 <geniusUserInputColor>
     4ca:	2c c0       	rjmp	.+88     	; 0x524 <__EEPROM_REGION_LENGTH__+0x124>
     4cc:	86 e0       	ldi	r24, 0x06	; 6
     4ce:	80 93 89 01 	sts	0x0189, r24	; 0x800189 <geniusUserInputColor>
     4d2:	28 c0       	rjmp	.+80     	; 0x524 <__EEPROM_REGION_LENGTH__+0x124>
     4d4:	87 e0       	ldi	r24, 0x07	; 7
     4d6:	80 93 89 01 	sts	0x0189, r24	; 0x800189 <geniusUserInputColor>
     4da:	24 c0       	rjmp	.+72     	; 0x524 <__EEPROM_REGION_LENGTH__+0x124>
     4dc:	88 e0       	ldi	r24, 0x08	; 8
     4de:	80 93 89 01 	sts	0x0189, r24	; 0x800189 <geniusUserInputColor>
     4e2:	20 c0       	rjmp	.+64     	; 0x524 <__EEPROM_REGION_LENGTH__+0x124>
     4e4:	10 92 89 01 	sts	0x0189, r1	; 0x800189 <geniusUserInputColor>
     4e8:	1d c0       	rjmp	.+58     	; 0x524 <__EEPROM_REGION_LENGTH__+0x124>
     4ea:	83 30       	cpi	r24, 0x03	; 3
     4ec:	69 f0       	breq	.+26     	; 0x508 <__EEPROM_REGION_LENGTH__+0x108>
     4ee:	18 f4       	brcc	.+6      	; 0x4f6 <__EEPROM_REGION_LENGTH__+0xf6>
     4f0:	81 30       	cpi	r24, 0x01	; 1
     4f2:	31 f0       	breq	.+12     	; 0x500 <__EEPROM_REGION_LENGTH__+0x100>
     4f4:	15 c0       	rjmp	.+42     	; 0x520 <__EEPROM_REGION_LENGTH__+0x120>
     4f6:	85 30       	cpi	r24, 0x05	; 5
     4f8:	59 f0       	breq	.+22     	; 0x510 <__EEPROM_REGION_LENGTH__+0x110>
     4fa:	87 30       	cpi	r24, 0x07	; 7
     4fc:	69 f0       	breq	.+26     	; 0x518 <__EEPROM_REGION_LENGTH__+0x118>
     4fe:	10 c0       	rjmp	.+32     	; 0x520 <__EEPROM_REGION_LENGTH__+0x120>
     500:	81 e0       	ldi	r24, 0x01	; 1
     502:	80 93 89 01 	sts	0x0189, r24	; 0x800189 <geniusUserInputColor>
     506:	0e c0       	rjmp	.+28     	; 0x524 <__EEPROM_REGION_LENGTH__+0x124>
     508:	82 e0       	ldi	r24, 0x02	; 2
     50a:	80 93 89 01 	sts	0x0189, r24	; 0x800189 <geniusUserInputColor>
     50e:	0a c0       	rjmp	.+20     	; 0x524 <__EEPROM_REGION_LENGTH__+0x124>
     510:	83 e0       	ldi	r24, 0x03	; 3
     512:	80 93 89 01 	sts	0x0189, r24	; 0x800189 <geniusUserInputColor>
     516:	06 c0       	rjmp	.+12     	; 0x524 <__EEPROM_REGION_LENGTH__+0x124>
     518:	84 e0       	ldi	r24, 0x04	; 4
     51a:	80 93 89 01 	sts	0x0189, r24	; 0x800189 <geniusUserInputColor>
     51e:	02 c0       	rjmp	.+4      	; 0x524 <__EEPROM_REGION_LENGTH__+0x124>
     520:	10 92 89 01 	sts	0x0189, r1	; 0x800189 <geniusUserInputColor>
     524:	80 91 89 01 	lds	r24, 0x0189	; 0x800189 <geniusUserInputColor>
     528:	88 23       	and	r24, r24
     52a:	21 f0       	breq	.+8      	; 0x534 <__EEPROM_REGION_LENGTH__+0x134>
     52c:	10 92 72 01 	sts	0x0172, r1	; 0x800172 <geniusUpdateInputFlag>
     530:	0e 94 0e 01 	call	0x21c	; 0x21c <geniusShowData>
     534:	86 e0       	ldi	r24, 0x06	; 6
     536:	80 93 77 01 	sts	0x0177, r24	; 0x800177 <geniusStep>
     53a:	8d c0       	rjmp	.+282    	; 0x656 <__EEPROM_REGION_LENGTH__+0x256>
     53c:	84 e0       	ldi	r24, 0x04	; 4
     53e:	0e 94 a0 10 	call	0x2140	; 0x2140 <Timer__MsGetStatus>
     542:	81 11       	cpse	r24, r1
     544:	04 c0       	rjmp	.+8      	; 0x54e <__EEPROM_REGION_LENGTH__+0x14e>
     546:	83 e0       	ldi	r24, 0x03	; 3
     548:	80 93 74 01 	sts	0x0174, r24	; 0x800174 <geniusConclusion>
     54c:	31 c0       	rjmp	.+98     	; 0x5b0 <__EEPROM_REGION_LENGTH__+0x1b0>
     54e:	80 91 89 01 	lds	r24, 0x0189	; 0x800189 <geniusUserInputColor>
     552:	81 11       	cpse	r24, r1
     554:	03 c0       	rjmp	.+6      	; 0x55c <__EEPROM_REGION_LENGTH__+0x15c>
     556:	10 92 74 01 	sts	0x0174, r1	; 0x800174 <geniusConclusion>
     55a:	2a c0       	rjmp	.+84     	; 0x5b0 <__EEPROM_REGION_LENGTH__+0x1b0>
     55c:	90 91 78 01 	lds	r25, 0x0178	; 0x800178 <geniusUserCounter>
     560:	e9 2f       	mov	r30, r25
     562:	f0 e0       	ldi	r31, 0x00	; 0
     564:	e7 58       	subi	r30, 0x87	; 135
     566:	fe 4f       	sbci	r31, 0xFE	; 254
     568:	20 81       	ld	r18, Z
     56a:	82 17       	cp	r24, r18
     56c:	21 f0       	breq	.+8      	; 0x576 <__EEPROM_REGION_LENGTH__+0x176>
     56e:	83 e0       	ldi	r24, 0x03	; 3
     570:	80 93 74 01 	sts	0x0174, r24	; 0x800174 <geniusConclusion>
     574:	1d c0       	rjmp	.+58     	; 0x5b0 <__EEPROM_REGION_LENGTH__+0x1b0>
     576:	20 91 8b 01 	lds	r18, 0x018B	; 0x80018b <geniusCurrentTurn>
     57a:	92 17       	cp	r25, r18
     57c:	20 f4       	brcc	.+8      	; 0x586 <__EEPROM_REGION_LENGTH__+0x186>
     57e:	81 e0       	ldi	r24, 0x01	; 1
     580:	80 93 74 01 	sts	0x0174, r24	; 0x800174 <geniusConclusion>
     584:	15 c0       	rjmp	.+42     	; 0x5b0 <__EEPROM_REGION_LENGTH__+0x1b0>
     586:	30 e0       	ldi	r19, 0x00	; 0
     588:	8c 2f       	mov	r24, r28
     58a:	90 e0       	ldi	r25, 0x00	; 0
     58c:	01 96       	adiw	r24, 0x01	; 1
     58e:	88 0f       	add	r24, r24
     590:	99 1f       	adc	r25, r25
     592:	88 0f       	add	r24, r24
     594:	99 1f       	adc	r25, r25
     596:	88 0f       	add	r24, r24
     598:	99 1f       	adc	r25, r25
     59a:	01 97       	sbiw	r24, 0x01	; 1
     59c:	28 17       	cp	r18, r24
     59e:	39 07       	cpc	r19, r25
     5a0:	24 f4       	brge	.+8      	; 0x5aa <__EEPROM_REGION_LENGTH__+0x1aa>
     5a2:	82 e0       	ldi	r24, 0x02	; 2
     5a4:	80 93 74 01 	sts	0x0174, r24	; 0x800174 <geniusConclusion>
     5a8:	03 c0       	rjmp	.+6      	; 0x5b0 <__EEPROM_REGION_LENGTH__+0x1b0>
     5aa:	84 e0       	ldi	r24, 0x04	; 4
     5ac:	80 93 74 01 	sts	0x0174, r24	; 0x800174 <geniusConclusion>
     5b0:	87 e0       	ldi	r24, 0x07	; 7
     5b2:	80 93 77 01 	sts	0x0177, r24	; 0x800177 <geniusStep>
     5b6:	4f c0       	rjmp	.+158    	; 0x656 <__EEPROM_REGION_LENGTH__+0x256>
     5b8:	80 91 74 01 	lds	r24, 0x0174	; 0x800174 <geniusConclusion>
     5bc:	82 30       	cpi	r24, 0x02	; 2
     5be:	f9 f0       	breq	.+62     	; 0x5fe <__EEPROM_REGION_LENGTH__+0x1fe>
     5c0:	28 f4       	brcc	.+10     	; 0x5cc <__EEPROM_REGION_LENGTH__+0x1cc>
     5c2:	88 23       	and	r24, r24
     5c4:	41 f0       	breq	.+16     	; 0x5d6 <__EEPROM_REGION_LENGTH__+0x1d6>
     5c6:	81 30       	cpi	r24, 0x01	; 1
     5c8:	51 f0       	breq	.+20     	; 0x5de <__EEPROM_REGION_LENGTH__+0x1de>
     5ca:	45 c0       	rjmp	.+138    	; 0x656 <__EEPROM_REGION_LENGTH__+0x256>
     5cc:	83 30       	cpi	r24, 0x03	; 3
     5ce:	49 f1       	breq	.+82     	; 0x622 <__EEPROM_REGION_LENGTH__+0x222>
     5d0:	84 30       	cpi	r24, 0x04	; 4
     5d2:	81 f1       	breq	.+96     	; 0x634 <__EEPROM_REGION_LENGTH__+0x234>
     5d4:	40 c0       	rjmp	.+128    	; 0x656 <__EEPROM_REGION_LENGTH__+0x256>
     5d6:	85 e0       	ldi	r24, 0x05	; 5
     5d8:	80 93 77 01 	sts	0x0177, r24	; 0x800177 <geniusStep>
     5dc:	3c c0       	rjmp	.+120    	; 0x656 <__EEPROM_REGION_LENGTH__+0x256>
     5de:	68 ec       	ldi	r22, 0xC8	; 200
     5e0:	70 e0       	ldi	r23, 0x00	; 0
     5e2:	83 e0       	ldi	r24, 0x03	; 3
     5e4:	0e 94 73 10 	call	0x20e6	; 0x20e6 <Timer__MsSet>
     5e8:	10 92 89 01 	sts	0x0189, r1	; 0x800189 <geniusUserInputColor>
     5ec:	80 91 78 01 	lds	r24, 0x0178	; 0x800178 <geniusUserCounter>
     5f0:	8f 5f       	subi	r24, 0xFF	; 255
     5f2:	80 93 78 01 	sts	0x0178, r24	; 0x800178 <geniusUserCounter>
     5f6:	84 e0       	ldi	r24, 0x04	; 4
     5f8:	80 93 77 01 	sts	0x0177, r24	; 0x800177 <geniusStep>
     5fc:	2c c0       	rjmp	.+88     	; 0x656 <__EEPROM_REGION_LENGTH__+0x256>
     5fe:	68 ec       	ldi	r22, 0xC8	; 200
     600:	70 e0       	ldi	r23, 0x00	; 0
     602:	83 e0       	ldi	r24, 0x03	; 3
     604:	0e 94 73 10 	call	0x20e6	; 0x20e6 <Timer__MsSet>
     608:	10 92 89 01 	sts	0x0189, r1	; 0x800189 <geniusUserInputColor>
     60c:	10 92 78 01 	sts	0x0178, r1	; 0x800178 <geniusUserCounter>
     610:	80 91 8b 01 	lds	r24, 0x018B	; 0x80018b <geniusCurrentTurn>
     614:	8f 5f       	subi	r24, 0xFF	; 255
     616:	80 93 8b 01 	sts	0x018B, r24	; 0x80018b <geniusCurrentTurn>
     61a:	82 e0       	ldi	r24, 0x02	; 2
     61c:	80 93 77 01 	sts	0x0177, r24	; 0x800177 <geniusStep>
     620:	1a c0       	rjmp	.+52     	; 0x656 <__EEPROM_REGION_LENGTH__+0x256>
     622:	81 e0       	ldi	r24, 0x01	; 1
     624:	0e 94 2e 0b 	call	0x165c	; 0x165c <displaySetAnimation>
     628:	0e 94 49 0c 	call	0x1892	; 0x1892 <clearDisplay>
     62c:	88 e0       	ldi	r24, 0x08	; 8
     62e:	80 93 77 01 	sts	0x0177, r24	; 0x800177 <geniusStep>
     632:	11 c0       	rjmp	.+34     	; 0x656 <__EEPROM_REGION_LENGTH__+0x256>
     634:	0e 94 49 0c 	call	0x1892	; 0x1892 <clearDisplay>
     638:	82 e0       	ldi	r24, 0x02	; 2
     63a:	0e 94 2e 0b 	call	0x165c	; 0x165c <displaySetAnimation>
     63e:	88 e0       	ldi	r24, 0x08	; 8
     640:	80 93 77 01 	sts	0x0177, r24	; 0x800177 <geniusStep>
     644:	08 c0       	rjmp	.+16     	; 0x656 <__EEPROM_REGION_LENGTH__+0x256>
     646:	0e 94 26 0b 	call	0x164c	; 0x164c <displayGetAnimationStatus>
     64a:	88 23       	and	r24, r24
     64c:	21 f0       	breq	.+8      	; 0x656 <__EEPROM_REGION_LENGTH__+0x256>
     64e:	0e 94 7a 00 	call	0xf4	; 0xf4 <resetGameMode>
     652:	10 92 77 01 	sts	0x0177, r1	; 0x800177 <geniusStep>
     656:	df 91       	pop	r29
     658:	cf 91       	pop	r28
     65a:	08 95       	ret

0000065c <main>:
     65c:	10 92 8e 01 	sts	0x018E, r1	; 0x80018e <Slot>
     660:	10 92 80 00 	sts	0x0080, r1	; 0x800080 <__TEXT_REGION_LENGTH__+0x7f8080>
     664:	e1 e8       	ldi	r30, 0x81	; 129
     666:	f0 e0       	ldi	r31, 0x00	; 0
     668:	10 82       	st	Z, r1
     66a:	80 81       	ld	r24, Z
     66c:	83 60       	ori	r24, 0x03	; 3
     66e:	80 83       	st	Z, r24
     670:	86 e0       	ldi	r24, 0x06	; 6
     672:	9f ef       	ldi	r25, 0xFF	; 255
     674:	90 93 85 00 	sts	0x0085, r25	; 0x800085 <__TEXT_REGION_LENGTH__+0x7f8085>
     678:	80 93 84 00 	sts	0x0084, r24	; 0x800084 <__TEXT_REGION_LENGTH__+0x7f8084>
     67c:	ef e6       	ldi	r30, 0x6F	; 111
     67e:	f0 e0       	ldi	r31, 0x00	; 0
     680:	80 81       	ld	r24, Z
     682:	81 60       	ori	r24, 0x01	; 1
     684:	80 83       	st	Z, r24
     686:	78 94       	sei
     688:	0e 94 74 00 	call	0xe8	; 0xe8 <applInitialize>
     68c:	0e 94 5a 08 	call	0x10b4	; 0x10b4 <ADC__Initialize>
     690:	0e 94 ef 09 	call	0x13de	; 0x13de <Pwm__Initialize>
     694:	0e 94 17 0b 	call	0x162e	; 0x162e <halSoundInitialize>
     698:	0e 94 2f 10 	call	0x205e	; 0x205e <Timer__Initialize>
     69c:	0e 94 5d 0a 	call	0x14ba	; 0x14ba <halKeyBoardInitialize>
     6a0:	0e 94 ad 0c 	call	0x195a	; 0x195a <keyboardInitialize>
     6a4:	0e 94 42 0c 	call	0x1884	; 0x1884 <ledInitialize>
     6a8:	0e 94 db 0d 	call	0x1bb6	; 0x1bb6 <rngInit>
     6ac:	0e 94 a6 06 	call	0xd4c	; 0xd4c <tictactoeInitialize>
     6b0:	0e 94 09 01 	call	0x212	; 0x212 <geniusInitialize>
     6b4:	0e 94 98 03 	call	0x730	; 0x730 <snakeInitialize>
     6b8:	0e 94 c9 00 	call	0x192	; 0x192 <debuggerInitialize>
     6bc:	0e 94 10 0e 	call	0x1c20	; 0x1c20 <soundInitialize>
     6c0:	0e 94 82 08 	call	0x1104	; 0x1104 <ADC__Handler>
     6c4:	0e 94 f5 0a 	call	0x15ea	; 0x15ea <halKeyboardBackgroundHandler>
     6c8:	0e 94 41 10 	call	0x2082	; 0x2082 <Timer__MsHandler>
     6cc:	0e 94 44 0b 	call	0x1688	; 0x1688 <displayBackgroundHandler>
     6d0:	0e 94 d8 0d 	call	0x1bb0	; 0x1bb0 <keyboardHander>
     6d4:	80 91 8e 01 	lds	r24, 0x018E	; 0x80018e <Slot>
     6d8:	82 30       	cpi	r24, 0x02	; 2
     6da:	71 f0       	breq	.+28     	; 0x6f8 <main+0x9c>
     6dc:	28 f4       	brcc	.+10     	; 0x6e8 <main+0x8c>
     6de:	88 23       	and	r24, r24
     6e0:	b1 f0       	breq	.+44     	; 0x70e <main+0xb2>
     6e2:	81 30       	cpi	r24, 0x01	; 1
     6e4:	31 f0       	breq	.+12     	; 0x6f2 <main+0x96>
     6e6:	11 c0       	rjmp	.+34     	; 0x70a <main+0xae>
     6e8:	83 30       	cpi	r24, 0x03	; 3
     6ea:	49 f0       	breq	.+18     	; 0x6fe <main+0xa2>
     6ec:	84 30       	cpi	r24, 0x04	; 4
     6ee:	51 f0       	breq	.+20     	; 0x704 <main+0xa8>
     6f0:	0c c0       	rjmp	.+24     	; 0x70a <main+0xae>
     6f2:	0e 94 a7 0c 	call	0x194e	; 0x194e <displayHandler>
     6f6:	0b c0       	rjmp	.+22     	; 0x70e <main+0xb2>
     6f8:	0e 94 11 10 	call	0x2022	; 0x2022 <soundHandler>
     6fc:	08 c0       	rjmp	.+16     	; 0x70e <main+0xb2>
     6fe:	0e 94 e8 0d 	call	0x1bd0	; 0x1bd0 <rngHandler>
     702:	05 c0       	rjmp	.+10     	; 0x70e <main+0xb2>
     704:	0e 94 a5 00 	call	0x14a	; 0x14a <applHander>
     708:	02 c0       	rjmp	.+4      	; 0x70e <main+0xb2>
     70a:	10 92 8e 01 	sts	0x018E, r1	; 0x80018e <Slot>
     70e:	80 91 84 00 	lds	r24, 0x0084	; 0x800084 <__TEXT_REGION_LENGTH__+0x7f8084>
     712:	90 91 85 00 	lds	r25, 0x0085	; 0x800085 <__TEXT_REGION_LENGTH__+0x7f8085>
     716:	85 30       	cpi	r24, 0x05	; 5
     718:	9f 4f       	sbci	r25, 0xFF	; 255
     71a:	e0 f2       	brcs	.-72     	; 0x6d4 <main+0x78>
     71c:	80 91 8e 01 	lds	r24, 0x018E	; 0x80018e <Slot>
     720:	8f 5f       	subi	r24, 0xFF	; 255
     722:	80 93 8e 01 	sts	0x018E, r24	; 0x80018e <Slot>
     726:	85 30       	cpi	r24, 0x05	; 5
     728:	58 f2       	brcs	.-106    	; 0x6c0 <main+0x64>
     72a:	10 92 8e 01 	sts	0x018E, r1	; 0x80018e <Slot>
     72e:	c8 cf       	rjmp	.-112    	; 0x6c0 <main+0x64>

00000730 <snakeInitialize>:
     730:	8f e8       	ldi	r24, 0x8F	; 143
     732:	91 e0       	ldi	r25, 0x01	; 1
     734:	90 93 e2 02 	sts	0x02E2, r25	; 0x8002e2 <snakeFirstAddress+0x1>
     738:	80 93 e1 02 	sts	0x02E1, r24	; 0x8002e1 <snakeFirstAddress>
     73c:	8a ec       	ldi	r24, 0xCA	; 202
     73e:	92 e0       	ldi	r25, 0x02	; 2
     740:	90 93 e0 02 	sts	0x02E0, r25	; 0x8002e0 <snakeLastAddress+0x1>
     744:	80 93 df 02 	sts	0x02DF, r24	; 0x8002df <snakeLastAddress>
     748:	10 92 d3 02 	sts	0x02D3, r1	; 0x8002d3 <snakeStep>
     74c:	30 e0       	ldi	r19, 0x00	; 0
     74e:	90 e0       	ldi	r25, 0x00	; 0
     750:	ef e8       	ldi	r30, 0x8F	; 143
     752:	f1 e0       	ldi	r31, 0x01	; 1
     754:	0c c0       	rjmp	.+24     	; 0x76e <snakeInitialize+0x3e>
     756:	88 e0       	ldi	r24, 0x08	; 8
     758:	28 2f       	mov	r18, r24
     75a:	29 1b       	sub	r18, r25
     75c:	23 83       	std	Z+3, r18	; 0x03
     75e:	83 1b       	sub	r24, r19
     760:	84 83       	std	Z+4, r24	; 0x04
     762:	9f 5f       	subi	r25, 0xFF	; 255
     764:	98 30       	cpi	r25, 0x08	; 8
     766:	11 f4       	brne	.+4      	; 0x76c <snakeInitialize+0x3c>
     768:	3f 5f       	subi	r19, 0xFF	; 255
     76a:	90 e0       	ldi	r25, 0x00	; 0
     76c:	35 96       	adiw	r30, 0x05	; 5
     76e:	82 e0       	ldi	r24, 0x02	; 2
     770:	ea 3c       	cpi	r30, 0xCA	; 202
     772:	f8 07       	cpc	r31, r24
     774:	81 f3       	breq	.-32     	; 0x756 <snakeInitialize+0x26>
     776:	78 f3       	brcs	.-34     	; 0x756 <snakeInitialize+0x26>
     778:	08 95       	ret

0000077a <snakeClearCache>:
     77a:	e0 91 e1 02 	lds	r30, 0x02E1	; 0x8002e1 <snakeFirstAddress>
     77e:	f0 91 e2 02 	lds	r31, 0x02E2	; 0x8002e2 <snakeFirstAddress+0x1>
     782:	04 c0       	rjmp	.+8      	; 0x78c <snakeClearCache+0x12>
     784:	10 82       	st	Z, r1
     786:	12 82       	std	Z+2, r1	; 0x02
     788:	11 82       	std	Z+1, r1	; 0x01
     78a:	35 96       	adiw	r30, 0x05	; 5
     78c:	80 91 df 02 	lds	r24, 0x02DF	; 0x8002df <snakeLastAddress>
     790:	90 91 e0 02 	lds	r25, 0x02E0	; 0x8002e0 <snakeLastAddress+0x1>
     794:	8e 17       	cp	r24, r30
     796:	9f 07       	cpc	r25, r31
     798:	a8 f7       	brcc	.-22     	; 0x784 <snakeClearCache+0xa>
     79a:	08 95       	ret

0000079c <snakeInitialCondition>:
     79c:	83 e0       	ldi	r24, 0x03	; 3
     79e:	80 93 d2 02 	sts	0x02D2, r24	; 0x8002d2 <snakeSize>
     7a2:	83 e0       	ldi	r24, 0x03	; 3
     7a4:	90 e0       	ldi	r25, 0x00	; 0
     7a6:	90 93 dc 02 	sts	0x02DC, r25	; 0x8002dc <coordenadaX+0x1>
     7aa:	80 93 db 02 	sts	0x02DB, r24	; 0x8002db <coordenadaX>
     7ae:	90 93 d0 02 	sts	0x02D0, r25	; 0x8002d0 <coordenadaY+0x1>
     7b2:	80 93 cf 02 	sts	0x02CF, r24	; 0x8002cf <coordenadaY>
     7b6:	e6 e1       	ldi	r30, 0x16	; 22
     7b8:	f2 e0       	ldi	r31, 0x02	; 2
     7ba:	f0 93 e6 02 	sts	0x02E6, r31	; 0x8002e6 <snakeArryHead+0x1>
     7be:	e0 93 e5 02 	sts	0x02E5, r30	; 0x8002e5 <snakeArryHead>
     7c2:	82 e0       	ldi	r24, 0x02	; 2
     7c4:	80 83       	st	Z, r24
     7c6:	e1 e1       	ldi	r30, 0x11	; 17
     7c8:	f2 e0       	ldi	r31, 0x02	; 2
     7ca:	f0 93 18 02 	sts	0x0218, r31	; 0x800218 <snakeFieldData+0x89>
     7ce:	e0 93 17 02 	sts	0x0217, r30	; 0x800217 <snakeFieldData+0x88>
     7d2:	80 83       	st	Z, r24
     7d4:	ec e0       	ldi	r30, 0x0C	; 12
     7d6:	f2 e0       	ldi	r31, 0x02	; 2
     7d8:	f0 93 13 02 	sts	0x0213, r31	; 0x800213 <snakeFieldData+0x84>
     7dc:	e0 93 12 02 	sts	0x0212, r30	; 0x800212 <snakeFieldData+0x83>
     7e0:	80 83       	st	Z, r24
     7e2:	10 92 0e 02 	sts	0x020E, r1	; 0x80020e <snakeFieldData+0x7f>
     7e6:	10 92 0d 02 	sts	0x020D, r1	; 0x80020d <snakeFieldData+0x7e>
     7ea:	f0 93 d8 02 	sts	0x02D8, r31	; 0x8002d8 <snakeArryTail+0x1>
     7ee:	e0 93 d7 02 	sts	0x02D7, r30	; 0x8002d7 <snakeArryTail>
     7f2:	08 95       	ret

000007f4 <snakePlaceApple>:
     7f4:	82 e0       	ldi	r24, 0x02	; 2
     7f6:	0e 94 08 0e 	call	0x1c10	; 0x1c10 <getRandomNumber>
     7fa:	50 91 e1 02 	lds	r21, 0x02E1	; 0x8002e1 <snakeFirstAddress>
     7fe:	40 91 e2 02 	lds	r20, 0x02E2	; 0x8002e2 <snakeFirstAddress+0x1>
     802:	e5 2f       	mov	r30, r21
     804:	f4 2f       	mov	r31, r20
     806:	20 91 df 02 	lds	r18, 0x02DF	; 0x8002df <snakeLastAddress>
     80a:	30 91 e0 02 	lds	r19, 0x02E0	; 0x8002e0 <snakeLastAddress+0x1>
     80e:	e2 17       	cp	r30, r18
     810:	f3 07       	cpc	r31, r19
     812:	10 f4       	brcc	.+4      	; 0x818 <__DATA_REGION_LENGTH__+0x18>
     814:	35 96       	adiw	r30, 0x05	; 5
     816:	02 c0       	rjmp	.+4      	; 0x81c <__DATA_REGION_LENGTH__+0x1c>
     818:	e5 2f       	mov	r30, r21
     81a:	f4 2f       	mov	r31, r20
     81c:	90 81       	ld	r25, Z
     81e:	92 30       	cpi	r25, 0x02	; 2
     820:	09 f0       	breq	.+2      	; 0x824 <__DATA_REGION_LENGTH__+0x24>
     822:	81 50       	subi	r24, 0x01	; 1
     824:	81 11       	cpse	r24, r1
     826:	ef cf       	rjmp	.-34     	; 0x806 <__DATA_REGION_LENGTH__+0x6>
     828:	81 e0       	ldi	r24, 0x01	; 1
     82a:	80 83       	st	Z, r24
     82c:	f0 93 e4 02 	sts	0x02E4, r31	; 0x8002e4 <snakeAppleAddress+0x1>
     830:	e0 93 e3 02 	sts	0x02E3, r30	; 0x8002e3 <snakeAppleAddress>
     834:	80 93 d1 02 	sts	0x02D1, r24	; 0x8002d1 <snakeAppleFlag>
     838:	80 91 d6 02 	lds	r24, 0x02D6	; 0x8002d6 <snakeSpeed>
     83c:	88 23       	and	r24, r24
     83e:	1c f4       	brge	.+6      	; 0x846 <__DATA_REGION_LENGTH__+0x46>
     840:	82 50       	subi	r24, 0x02	; 2
     842:	80 93 d6 02 	sts	0x02D6, r24	; 0x8002d6 <snakeSpeed>
     846:	08 95       	ret

00000848 <snakeKeyInterpreter>:
     848:	83 30       	cpi	r24, 0x03	; 3
     84a:	89 f0       	breq	.+34     	; 0x86e <snakeKeyInterpreter+0x26>
     84c:	18 f4       	brcc	.+6      	; 0x854 <snakeKeyInterpreter+0xc>
     84e:	81 30       	cpi	r24, 0x01	; 1
     850:	31 f0       	breq	.+12     	; 0x85e <snakeKeyInterpreter+0x16>
     852:	0b c0       	rjmp	.+22     	; 0x86a <snakeKeyInterpreter+0x22>
     854:	85 30       	cpi	r24, 0x05	; 5
     856:	29 f0       	breq	.+10     	; 0x862 <snakeKeyInterpreter+0x1a>
     858:	87 30       	cpi	r24, 0x07	; 7
     85a:	29 f0       	breq	.+10     	; 0x866 <snakeKeyInterpreter+0x1e>
     85c:	06 c0       	rjmp	.+12     	; 0x86a <snakeKeyInterpreter+0x22>
     85e:	83 e0       	ldi	r24, 0x03	; 3
     860:	08 95       	ret
     862:	81 e0       	ldi	r24, 0x01	; 1
     864:	08 95       	ret
     866:	84 e0       	ldi	r24, 0x04	; 4
     868:	08 95       	ret
     86a:	85 e0       	ldi	r24, 0x05	; 5
     86c:	08 95       	ret
     86e:	82 e0       	ldi	r24, 0x02	; 2
     870:	08 95       	ret

00000872 <snakeNextMove>:
     872:	60 91 cf 02 	lds	r22, 0x02CF	; 0x8002cf <coordenadaY>
     876:	70 91 d0 02 	lds	r23, 0x02D0	; 0x8002d0 <coordenadaY+0x1>
     87a:	20 91 db 02 	lds	r18, 0x02DB	; 0x8002db <coordenadaX>
     87e:	30 91 dc 02 	lds	r19, 0x02DC	; 0x8002dc <coordenadaX+0x1>
     882:	f9 01       	movw	r30, r18
     884:	ee 0f       	add	r30, r30
     886:	ff 1f       	adc	r31, r31
     888:	ee 0f       	add	r30, r30
     88a:	ff 1f       	adc	r31, r31
     88c:	e2 0f       	add	r30, r18
     88e:	f3 1f       	adc	r31, r19
     890:	98 e2       	ldi	r25, 0x28	; 40
     892:	96 9f       	mul	r25, r22
     894:	a0 01       	movw	r20, r0
     896:	97 9f       	mul	r25, r23
     898:	50 0d       	add	r21, r0
     89a:	11 24       	eor	r1, r1
     89c:	e4 0f       	add	r30, r20
     89e:	f5 1f       	adc	r31, r21
     8a0:	e1 57       	subi	r30, 0x71	; 113
     8a2:	fe 4f       	sbci	r31, 0xFE	; 254
     8a4:	82 30       	cpi	r24, 0x02	; 2
     8a6:	31 f1       	breq	.+76     	; 0x8f4 <snakeNextMove+0x82>
     8a8:	18 f4       	brcc	.+6      	; 0x8b0 <snakeNextMove+0x3e>
     8aa:	81 30       	cpi	r24, 0x01	; 1
     8ac:	a9 f0       	breq	.+42     	; 0x8d8 <snakeNextMove+0x66>
     8ae:	3e c0       	rjmp	.+124    	; 0x92c <__stack+0x2d>
     8b0:	83 30       	cpi	r24, 0x03	; 3
     8b2:	19 f0       	breq	.+6      	; 0x8ba <snakeNextMove+0x48>
     8b4:	84 30       	cpi	r24, 0x04	; 4
     8b6:	69 f1       	breq	.+90     	; 0x912 <__stack+0x13>
     8b8:	39 c0       	rjmp	.+114    	; 0x92c <__stack+0x2d>
     8ba:	61 50       	subi	r22, 0x01	; 1
     8bc:	71 09       	sbc	r23, r1
     8be:	70 93 d0 02 	sts	0x02D0, r23	; 0x8002d0 <coordenadaY+0x1>
     8c2:	60 93 cf 02 	sts	0x02CF, r22	; 0x8002cf <coordenadaY>
     8c6:	77 23       	and	r23, r23
     8c8:	8c f5       	brge	.+98     	; 0x92c <__stack+0x2d>
     8ca:	87 e0       	ldi	r24, 0x07	; 7
     8cc:	90 e0       	ldi	r25, 0x00	; 0
     8ce:	90 93 d0 02 	sts	0x02D0, r25	; 0x8002d0 <coordenadaY+0x1>
     8d2:	80 93 cf 02 	sts	0x02CF, r24	; 0x8002cf <coordenadaY>
     8d6:	2a c0       	rjmp	.+84     	; 0x92c <__stack+0x2d>
     8d8:	2f 5f       	subi	r18, 0xFF	; 255
     8da:	3f 4f       	sbci	r19, 0xFF	; 255
     8dc:	30 93 dc 02 	sts	0x02DC, r19	; 0x8002dc <coordenadaX+0x1>
     8e0:	20 93 db 02 	sts	0x02DB, r18	; 0x8002db <coordenadaX>
     8e4:	28 30       	cpi	r18, 0x08	; 8
     8e6:	31 05       	cpc	r19, r1
     8e8:	0c f1       	brlt	.+66     	; 0x92c <__stack+0x2d>
     8ea:	10 92 dc 02 	sts	0x02DC, r1	; 0x8002dc <coordenadaX+0x1>
     8ee:	10 92 db 02 	sts	0x02DB, r1	; 0x8002db <coordenadaX>
     8f2:	1c c0       	rjmp	.+56     	; 0x92c <__stack+0x2d>
     8f4:	21 50       	subi	r18, 0x01	; 1
     8f6:	31 09       	sbc	r19, r1
     8f8:	30 93 dc 02 	sts	0x02DC, r19	; 0x8002dc <coordenadaX+0x1>
     8fc:	20 93 db 02 	sts	0x02DB, r18	; 0x8002db <coordenadaX>
     900:	33 23       	and	r19, r19
     902:	a4 f4       	brge	.+40     	; 0x92c <__stack+0x2d>
     904:	87 e0       	ldi	r24, 0x07	; 7
     906:	90 e0       	ldi	r25, 0x00	; 0
     908:	90 93 dc 02 	sts	0x02DC, r25	; 0x8002dc <coordenadaX+0x1>
     90c:	80 93 db 02 	sts	0x02DB, r24	; 0x8002db <coordenadaX>
     910:	0d c0       	rjmp	.+26     	; 0x92c <__stack+0x2d>
     912:	6f 5f       	subi	r22, 0xFF	; 255
     914:	7f 4f       	sbci	r23, 0xFF	; 255
     916:	70 93 d0 02 	sts	0x02D0, r23	; 0x8002d0 <coordenadaY+0x1>
     91a:	60 93 cf 02 	sts	0x02CF, r22	; 0x8002cf <coordenadaY>
     91e:	68 30       	cpi	r22, 0x08	; 8
     920:	71 05       	cpc	r23, r1
     922:	24 f0       	brlt	.+8      	; 0x92c <__stack+0x2d>
     924:	10 92 d0 02 	sts	0x02D0, r1	; 0x8002d0 <coordenadaY+0x1>
     928:	10 92 cf 02 	sts	0x02CF, r1	; 0x8002cf <coordenadaY>
     92c:	20 91 cf 02 	lds	r18, 0x02CF	; 0x8002cf <coordenadaY>
     930:	30 91 d0 02 	lds	r19, 0x02D0	; 0x8002d0 <coordenadaY+0x1>
     934:	a0 91 db 02 	lds	r26, 0x02DB	; 0x8002db <coordenadaX>
     938:	b0 91 dc 02 	lds	r27, 0x02DC	; 0x8002dc <coordenadaX+0x1>
     93c:	cd 01       	movw	r24, r26
     93e:	88 0f       	add	r24, r24
     940:	99 1f       	adc	r25, r25
     942:	88 0f       	add	r24, r24
     944:	99 1f       	adc	r25, r25
     946:	a8 0f       	add	r26, r24
     948:	b9 1f       	adc	r27, r25
     94a:	48 e2       	ldi	r20, 0x28	; 40
     94c:	42 9f       	mul	r20, r18
     94e:	c0 01       	movw	r24, r0
     950:	43 9f       	mul	r20, r19
     952:	90 0d       	add	r25, r0
     954:	11 24       	eor	r1, r1
     956:	a8 0f       	add	r26, r24
     958:	b9 1f       	adc	r27, r25
     95a:	a1 57       	subi	r26, 0x71	; 113
     95c:	be 4f       	sbci	r27, 0xFE	; 254
     95e:	b0 93 e6 02 	sts	0x02E6, r27	; 0x8002e6 <snakeArryHead+0x1>
     962:	a0 93 e5 02 	sts	0x02E5, r26	; 0x8002e5 <snakeArryHead>
     966:	8c 91       	ld	r24, X
     968:	81 30       	cpi	r24, 0x01	; 1
     96a:	91 f4       	brne	.+36     	; 0x990 <__stack+0x91>
     96c:	82 e0       	ldi	r24, 0x02	; 2
     96e:	8c 93       	st	X, r24
     970:	a0 91 e5 02 	lds	r26, 0x02E5	; 0x8002e5 <snakeArryHead>
     974:	b0 91 e6 02 	lds	r27, 0x02E6	; 0x8002e6 <snakeArryHead+0x1>
     978:	12 96       	adiw	r26, 0x02	; 2
     97a:	fc 93       	st	X, r31
     97c:	ee 93       	st	-X, r30
     97e:	11 97       	sbiw	r26, 0x01	; 1
     980:	80 91 d2 02 	lds	r24, 0x02D2	; 0x8002d2 <snakeSize>
     984:	8f 5f       	subi	r24, 0xFF	; 255
     986:	80 93 d2 02 	sts	0x02D2, r24	; 0x8002d2 <snakeSize>
     98a:	10 92 d1 02 	sts	0x02D1, r1	; 0x8002d1 <snakeAppleFlag>
     98e:	08 95       	ret
     990:	a0 91 d7 02 	lds	r26, 0x02D7	; 0x8002d7 <snakeArryTail>
     994:	b0 91 d8 02 	lds	r27, 0x02D8	; 0x8002d8 <snakeArryTail+0x1>
     998:	1c 92       	st	X, r1
     99a:	a0 91 d7 02 	lds	r26, 0x02D7	; 0x8002d7 <snakeArryTail>
     99e:	b0 91 d8 02 	lds	r27, 0x02D8	; 0x8002d8 <snakeArryTail+0x1>
     9a2:	12 96       	adiw	r26, 0x02	; 2
     9a4:	1c 92       	st	X, r1
     9a6:	1e 92       	st	-X, r1
     9a8:	11 97       	sbiw	r26, 0x01	; 1
     9aa:	a0 91 e5 02 	lds	r26, 0x02E5	; 0x8002e5 <snakeArryHead>
     9ae:	b0 91 e6 02 	lds	r27, 0x02E6	; 0x8002e6 <snakeArryHead+0x1>
     9b2:	8c 91       	ld	r24, X
     9b4:	82 30       	cpi	r24, 0x02	; 2
     9b6:	41 f4       	brne	.+16     	; 0x9c8 <__stack+0xc9>
     9b8:	f0 93 e6 02 	sts	0x02E6, r31	; 0x8002e6 <snakeArryHead+0x1>
     9bc:	e0 93 e5 02 	sts	0x02E5, r30	; 0x8002e5 <snakeArryHead>
     9c0:	81 e0       	ldi	r24, 0x01	; 1
     9c2:	80 93 d5 02 	sts	0x02D5, r24	; 0x8002d5 <snakeConclusion>
     9c6:	08 95       	ret
     9c8:	82 e0       	ldi	r24, 0x02	; 2
     9ca:	8c 93       	st	X, r24
     9cc:	a0 91 e5 02 	lds	r26, 0x02E5	; 0x8002e5 <snakeArryHead>
     9d0:	b0 91 e6 02 	lds	r27, 0x02E6	; 0x8002e6 <snakeArryHead+0x1>
     9d4:	12 96       	adiw	r26, 0x02	; 2
     9d6:	fc 93       	st	X, r31
     9d8:	ee 93       	st	-X, r30
     9da:	11 97       	sbiw	r26, 0x01	; 1
     9dc:	81 e0       	ldi	r24, 0x01	; 1
     9de:	12 c0       	rjmp	.+36     	; 0xa04 <__stack+0x105>
     9e0:	8f 5f       	subi	r24, 0xFF	; 255
     9e2:	98 13       	cpse	r25, r24
     9e4:	0c c0       	rjmp	.+24     	; 0x9fe <__stack+0xff>
     9e6:	20 91 d7 02 	lds	r18, 0x02D7	; 0x8002d7 <snakeArryTail>
     9ea:	30 91 d8 02 	lds	r19, 0x02D8	; 0x8002d8 <snakeArryTail+0x1>
     9ee:	30 93 de 02 	sts	0x02DE, r19	; 0x8002de <snakePrevArryTail+0x1>
     9f2:	20 93 dd 02 	sts	0x02DD, r18	; 0x8002dd <snakePrevArryTail>
     9f6:	f0 93 d8 02 	sts	0x02D8, r31	; 0x8002d8 <snakeArryTail+0x1>
     9fa:	e0 93 d7 02 	sts	0x02D7, r30	; 0x8002d7 <snakeArryTail>
     9fe:	01 80       	ldd	r0, Z+1	; 0x01
     a00:	f2 81       	ldd	r31, Z+2	; 0x02
     a02:	e0 2d       	mov	r30, r0
     a04:	90 91 d2 02 	lds	r25, 0x02D2	; 0x8002d2 <snakeSize>
     a08:	89 17       	cp	r24, r25
     a0a:	50 f3       	brcs	.-44     	; 0x9e0 <__stack+0xe1>
     a0c:	e0 91 d7 02 	lds	r30, 0x02D7	; 0x8002d7 <snakeArryTail>
     a10:	f0 91 d8 02 	lds	r31, 0x02D8	; 0x8002d8 <snakeArryTail+0x1>
     a14:	12 82       	std	Z+2, r1	; 0x02
     a16:	11 82       	std	Z+1, r1	; 0x01
     a18:	08 95       	ret

00000a1a <snakeDisplayUpdate>:
     a1a:	ef 92       	push	r14
     a1c:	ff 92       	push	r15
     a1e:	0f 93       	push	r16
     a20:	1f 93       	push	r17
     a22:	cf 93       	push	r28
     a24:	df 93       	push	r29
     a26:	ec 01       	movw	r28, r24
     a28:	e1 2c       	mov	r14, r1
     a2a:	0f 2e       	mov	r0, r31
     a2c:	ff e1       	ldi	r31, 0x1F	; 31
     a2e:	ff 2e       	mov	r15, r31
     a30:	f0 2d       	mov	r31, r0
     a32:	1c 81       	ldd	r17, Y+4	; 0x04
     a34:	0b 81       	ldd	r16, Y+3	; 0x03
     a36:	88 81       	ld	r24, Y
     a38:	81 30       	cpi	r24, 0x01	; 1
     a3a:	b9 f0       	breq	.+46     	; 0xa6a <snakeDisplayUpdate+0x50>
     a3c:	18 f0       	brcs	.+6      	; 0xa44 <snakeDisplayUpdate+0x2a>
     a3e:	82 30       	cpi	r24, 0x02	; 2
     a40:	39 f1       	breq	.+78     	; 0xa90 <snakeDisplayUpdate+0x76>
     a42:	59 c0       	rjmp	.+178    	; 0xaf6 <snakeDisplayUpdate+0xdc>
     a44:	20 e0       	ldi	r18, 0x00	; 0
     a46:	40 e0       	ldi	r20, 0x00	; 0
     a48:	60 2f       	mov	r22, r16
     a4a:	81 2f       	mov	r24, r17
     a4c:	0e 94 75 0b 	call	0x16ea	; 0x16ea <changeIndividual>
     a50:	20 e0       	ldi	r18, 0x00	; 0
     a52:	42 e0       	ldi	r20, 0x02	; 2
     a54:	60 2f       	mov	r22, r16
     a56:	81 2f       	mov	r24, r17
     a58:	0e 94 75 0b 	call	0x16ea	; 0x16ea <changeIndividual>
     a5c:	20 e0       	ldi	r18, 0x00	; 0
     a5e:	41 e0       	ldi	r20, 0x01	; 1
     a60:	60 2f       	mov	r22, r16
     a62:	81 2f       	mov	r24, r17
     a64:	0e 94 75 0b 	call	0x16ea	; 0x16ea <changeIndividual>
     a68:	46 c0       	rjmp	.+140    	; 0xaf6 <snakeDisplayUpdate+0xdc>
     a6a:	20 e0       	ldi	r18, 0x00	; 0
     a6c:	40 e0       	ldi	r20, 0x00	; 0
     a6e:	60 2f       	mov	r22, r16
     a70:	81 2f       	mov	r24, r17
     a72:	0e 94 75 0b 	call	0x16ea	; 0x16ea <changeIndividual>
     a76:	20 e0       	ldi	r18, 0x00	; 0
     a78:	42 e0       	ldi	r20, 0x02	; 2
     a7a:	60 2f       	mov	r22, r16
     a7c:	81 2f       	mov	r24, r17
     a7e:	0e 94 75 0b 	call	0x16ea	; 0x16ea <changeIndividual>
     a82:	2f e1       	ldi	r18, 0x1F	; 31
     a84:	41 e0       	ldi	r20, 0x01	; 1
     a86:	60 2f       	mov	r22, r16
     a88:	81 2f       	mov	r24, r17
     a8a:	0e 94 75 0b 	call	0x16ea	; 0x16ea <changeIndividual>
     a8e:	33 c0       	rjmp	.+102    	; 0xaf6 <snakeDisplayUpdate+0xdc>
     a90:	2e 2d       	mov	r18, r14
     a92:	40 e0       	ldi	r20, 0x00	; 0
     a94:	60 2f       	mov	r22, r16
     a96:	81 2f       	mov	r24, r17
     a98:	0e 94 75 0b 	call	0x16ea	; 0x16ea <changeIndividual>
     a9c:	2f 2d       	mov	r18, r15
     a9e:	42 e0       	ldi	r20, 0x02	; 2
     aa0:	60 2f       	mov	r22, r16
     aa2:	81 2f       	mov	r24, r17
     aa4:	0e 94 75 0b 	call	0x16ea	; 0x16ea <changeIndividual>
     aa8:	20 e0       	ldi	r18, 0x00	; 0
     aaa:	41 e0       	ldi	r20, 0x01	; 1
     aac:	60 2f       	mov	r22, r16
     aae:	81 2f       	mov	r24, r17
     ab0:	0e 94 75 0b 	call	0x16ea	; 0x16ea <changeIndividual>
     ab4:	87 e0       	ldi	r24, 0x07	; 7
     ab6:	8f 15       	cp	r24, r15
     ab8:	08 f4       	brcc	.+2      	; 0xabc <snakeDisplayUpdate+0xa2>
     aba:	fa 94       	dec	r15
     abc:	86 e0       	ldi	r24, 0x06	; 6
     abe:	8e 15       	cp	r24, r14
     ac0:	08 f0       	brcs	.+2      	; 0xac4 <snakeDisplayUpdate+0xaa>
     ac2:	e3 94       	inc	r14
     ac4:	80 91 d7 02 	lds	r24, 0x02D7	; 0x8002d7 <snakeArryTail>
     ac8:	90 91 d8 02 	lds	r25, 0x02D8	; 0x8002d8 <snakeArryTail+0x1>
     acc:	c8 17       	cp	r28, r24
     ace:	d9 07       	cpc	r29, r25
     ad0:	91 f4       	brne	.+36     	; 0xaf6 <snakeDisplayUpdate+0xdc>
     ad2:	27 e0       	ldi	r18, 0x07	; 7
     ad4:	42 e0       	ldi	r20, 0x02	; 2
     ad6:	60 2f       	mov	r22, r16
     ad8:	81 2f       	mov	r24, r17
     ada:	0e 94 75 0b 	call	0x16ea	; 0x16ea <changeIndividual>
     ade:	27 e0       	ldi	r18, 0x07	; 7
     ae0:	41 e0       	ldi	r20, 0x01	; 1
     ae2:	60 2f       	mov	r22, r16
     ae4:	81 2f       	mov	r24, r17
     ae6:	0e 94 75 0b 	call	0x16ea	; 0x16ea <changeIndividual>
     aea:	20 e0       	ldi	r18, 0x00	; 0
     aec:	40 e0       	ldi	r20, 0x00	; 0
     aee:	60 2f       	mov	r22, r16
     af0:	81 2f       	mov	r24, r17
     af2:	0e 94 75 0b 	call	0x16ea	; 0x16ea <changeIndividual>
     af6:	09 80       	ldd	r0, Y+1	; 0x01
     af8:	da 81       	ldd	r29, Y+2	; 0x02
     afa:	c0 2d       	mov	r28, r0
     afc:	20 97       	sbiw	r28, 0x00	; 0
     afe:	09 f0       	breq	.+2      	; 0xb02 <snakeDisplayUpdate+0xe8>
     b00:	98 cf       	rjmp	.-208    	; 0xa32 <snakeDisplayUpdate+0x18>
     b02:	df 91       	pop	r29
     b04:	cf 91       	pop	r28
     b06:	1f 91       	pop	r17
     b08:	0f 91       	pop	r16
     b0a:	ff 90       	pop	r15
     b0c:	ef 90       	pop	r14
     b0e:	08 95       	ret

00000b10 <snakeEnd>:
     b10:	cf 93       	push	r28
     b12:	df 93       	push	r29
     b14:	e0 91 e5 02 	lds	r30, 0x02E5	; 0x8002e5 <snakeArryHead>
     b18:	f0 91 e6 02 	lds	r31, 0x02E6	; 0x8002e6 <snakeArryHead+0x1>
     b1c:	10 82       	st	Z, r1
     b1e:	e0 91 e5 02 	lds	r30, 0x02E5	; 0x8002e5 <snakeArryHead>
     b22:	f0 91 e6 02 	lds	r31, 0x02E6	; 0x8002e6 <snakeArryHead+0x1>
     b26:	c4 81       	ldd	r28, Z+4	; 0x04
     b28:	d3 81       	ldd	r29, Z+3	; 0x03
     b2a:	20 e0       	ldi	r18, 0x00	; 0
     b2c:	40 e0       	ldi	r20, 0x00	; 0
     b2e:	6d 2f       	mov	r22, r29
     b30:	8c 2f       	mov	r24, r28
     b32:	0e 94 75 0b 	call	0x16ea	; 0x16ea <changeIndividual>
     b36:	20 e0       	ldi	r18, 0x00	; 0
     b38:	42 e0       	ldi	r20, 0x02	; 2
     b3a:	6d 2f       	mov	r22, r29
     b3c:	8c 2f       	mov	r24, r28
     b3e:	0e 94 75 0b 	call	0x16ea	; 0x16ea <changeIndividual>
     b42:	20 e0       	ldi	r18, 0x00	; 0
     b44:	41 e0       	ldi	r20, 0x01	; 1
     b46:	6d 2f       	mov	r22, r29
     b48:	8c 2f       	mov	r24, r28
     b4a:	0e 94 75 0b 	call	0x16ea	; 0x16ea <changeIndividual>
     b4e:	e0 91 e5 02 	lds	r30, 0x02E5	; 0x8002e5 <snakeArryHead>
     b52:	f0 91 e6 02 	lds	r31, 0x02E6	; 0x8002e6 <snakeArryHead+0x1>
     b56:	81 81       	ldd	r24, Z+1	; 0x01
     b58:	92 81       	ldd	r25, Z+2	; 0x02
     b5a:	90 93 e6 02 	sts	0x02E6, r25	; 0x8002e6 <snakeArryHead+0x1>
     b5e:	80 93 e5 02 	sts	0x02E5, r24	; 0x8002e5 <snakeArryHead>
     b62:	df 91       	pop	r29
     b64:	cf 91       	pop	r28
     b66:	08 95       	ret

00000b68 <snakeHandler>:
     b68:	80 91 d3 02 	lds	r24, 0x02D3	; 0x8002d3 <snakeStep>
     b6c:	82 30       	cpi	r24, 0x02	; 2
     b6e:	09 f4       	brne	.+2      	; 0xb72 <snakeHandler+0xa>
     b70:	57 c0       	rjmp	.+174    	; 0xc20 <snakeHandler+0xb8>
     b72:	28 f4       	brcc	.+10     	; 0xb7e <snakeHandler+0x16>
     b74:	88 23       	and	r24, r24
     b76:	51 f0       	breq	.+20     	; 0xb8c <snakeHandler+0x24>
     b78:	81 30       	cpi	r24, 0x01	; 1
     b7a:	91 f1       	breq	.+100    	; 0xbe0 <snakeHandler+0x78>
     b7c:	08 95       	ret
     b7e:	83 30       	cpi	r24, 0x03	; 3
     b80:	09 f4       	brne	.+2      	; 0xb84 <snakeHandler+0x1c>
     b82:	8f c0       	rjmp	.+286    	; 0xca2 <snakeHandler+0x13a>
     b84:	84 30       	cpi	r24, 0x04	; 4
     b86:	09 f4       	brne	.+2      	; 0xb8a <snakeHandler+0x22>
     b88:	b0 c0       	rjmp	.+352    	; 0xcea <snakeHandler+0x182>
     b8a:	08 95       	ret
     b8c:	0e 94 bd 03 	call	0x77a	; 0x77a <snakeClearCache>
     b90:	10 92 e4 02 	sts	0x02E4, r1	; 0x8002e4 <snakeAppleAddress+0x1>
     b94:	10 92 e3 02 	sts	0x02E3, r1	; 0x8002e3 <snakeAppleAddress>
     b98:	10 92 de 02 	sts	0x02DE, r1	; 0x8002de <snakePrevArryTail+0x1>
     b9c:	10 92 dd 02 	sts	0x02DD, r1	; 0x8002dd <snakePrevArryTail>
     ba0:	10 92 d5 02 	sts	0x02D5, r1	; 0x8002d5 <snakeConclusion>
     ba4:	10 92 d4 02 	sts	0x02D4, r1	; 0x8002d4 <snakeInputMove>
     ba8:	10 92 da 02 	sts	0x02DA, r1	; 0x8002da <snakeCurrentMove>
     bac:	10 92 d9 02 	sts	0x02D9, r1	; 0x8002d9 <snakePrevMove>
     bb0:	8f ef       	ldi	r24, 0xFF	; 255
     bb2:	80 93 d6 02 	sts	0x02D6, r24	; 0x8002d6 <snakeSpeed>
     bb6:	62 e1       	ldi	r22, 0x12	; 18
     bb8:	81 e0       	ldi	r24, 0x01	; 1
     bba:	0e 94 22 0c 	call	0x1844	; 0x1844 <setDisplay>
     bbe:	62 e1       	ldi	r22, 0x12	; 18
     bc0:	82 e0       	ldi	r24, 0x02	; 2
     bc2:	0e 94 22 0c 	call	0x1844	; 0x1844 <setDisplay>
     bc6:	67 e0       	ldi	r22, 0x07	; 7
     bc8:	80 e0       	ldi	r24, 0x00	; 0
     bca:	0e 94 22 0c 	call	0x1844	; 0x1844 <setDisplay>
     bce:	68 ec       	ldi	r22, 0xC8	; 200
     bd0:	70 e0       	ldi	r23, 0x00	; 0
     bd2:	83 e0       	ldi	r24, 0x03	; 3
     bd4:	0e 94 73 10 	call	0x20e6	; 0x20e6 <Timer__MsSet>
     bd8:	81 e0       	ldi	r24, 0x01	; 1
     bda:	80 93 d3 02 	sts	0x02D3, r24	; 0x8002d3 <snakeStep>
     bde:	08 95       	ret
     be0:	83 e0       	ldi	r24, 0x03	; 3
     be2:	0e 94 a0 10 	call	0x2140	; 0x2140 <Timer__MsGetStatus>
     be6:	81 11       	cpse	r24, r1
     be8:	b0 c0       	rjmp	.+352    	; 0xd4a <snakeHandler+0x1e2>
     bea:	0e 94 49 0c 	call	0x1892	; 0x1892 <clearDisplay>
     bee:	0e 94 ce 03 	call	0x79c	; 0x79c <snakeInitialCondition>
     bf2:	80 91 e5 02 	lds	r24, 0x02E5	; 0x8002e5 <snakeArryHead>
     bf6:	90 91 e6 02 	lds	r25, 0x02E6	; 0x8002e6 <snakeArryHead+0x1>
     bfa:	0e 94 0d 05 	call	0xa1a	; 0xa1a <snakeDisplayUpdate>
     bfe:	0e 94 fa 03 	call	0x7f4	; 0x7f4 <snakePlaceApple>
     c02:	80 91 e3 02 	lds	r24, 0x02E3	; 0x8002e3 <snakeAppleAddress>
     c06:	90 91 e4 02 	lds	r25, 0x02E4	; 0x8002e4 <snakeAppleAddress+0x1>
     c0a:	0e 94 0d 05 	call	0xa1a	; 0xa1a <snakeDisplayUpdate>
     c0e:	68 e8       	ldi	r22, 0x88	; 136
     c10:	73 e1       	ldi	r23, 0x13	; 19
     c12:	85 e0       	ldi	r24, 0x05	; 5
     c14:	0e 94 73 10 	call	0x20e6	; 0x20e6 <Timer__MsSet>
     c18:	82 e0       	ldi	r24, 0x02	; 2
     c1a:	80 93 d3 02 	sts	0x02D3, r24	; 0x8002d3 <snakeStep>
     c1e:	08 95       	ret
     c20:	0e 94 d5 0c 	call	0x19aa	; 0x19aa <getKeyBuffer>
     c24:	80 93 6a 01 	sts	0x016A, r24	; 0x80016a <keyPressed>
     c28:	0e 94 24 04 	call	0x848	; 0x848 <snakeKeyInterpreter>
     c2c:	80 93 d4 02 	sts	0x02D4, r24	; 0x8002d4 <snakeInputMove>
     c30:	85 30       	cpi	r24, 0x05	; 5
     c32:	71 f1       	breq	.+92     	; 0xc90 <snakeHandler+0x128>
     c34:	90 91 da 02 	lds	r25, 0x02DA	; 0x8002da <snakeCurrentMove>
     c38:	89 17       	cp	r24, r25
     c3a:	51 f1       	breq	.+84     	; 0xc90 <snakeHandler+0x128>
     c3c:	90 91 d9 02 	lds	r25, 0x02D9	; 0x8002d9 <snakePrevMove>
     c40:	92 30       	cpi	r25, 0x02	; 2
     c42:	e9 f0       	breq	.+58     	; 0xc7e <snakeHandler+0x116>
     c44:	28 f4       	brcc	.+10     	; 0xc50 <snakeHandler+0xe8>
     c46:	99 23       	and	r25, r25
     c48:	41 f0       	breq	.+16     	; 0xc5a <snakeHandler+0xf2>
     c4a:	91 30       	cpi	r25, 0x01	; 1
     c4c:	e9 f0       	breq	.+58     	; 0xc88 <snakeHandler+0x120>
     c4e:	20 c0       	rjmp	.+64     	; 0xc90 <snakeHandler+0x128>
     c50:	93 30       	cpi	r25, 0x03	; 3
     c52:	59 f0       	breq	.+22     	; 0xc6a <snakeHandler+0x102>
     c54:	94 30       	cpi	r25, 0x04	; 4
     c56:	71 f0       	breq	.+28     	; 0xc74 <snakeHandler+0x10c>
     c58:	1b c0       	rjmp	.+54     	; 0xc90 <snakeHandler+0x128>
     c5a:	82 30       	cpi	r24, 0x02	; 2
     c5c:	c9 f0       	breq	.+50     	; 0xc90 <snakeHandler+0x128>
     c5e:	80 93 da 02 	sts	0x02DA, r24	; 0x8002da <snakeCurrentMove>
     c62:	85 e0       	ldi	r24, 0x05	; 5
     c64:	0e 94 91 10 	call	0x2122	; 0x2122 <Timer__MsExpire>
     c68:	13 c0       	rjmp	.+38     	; 0xc90 <snakeHandler+0x128>
     c6a:	84 30       	cpi	r24, 0x04	; 4
     c6c:	89 f0       	breq	.+34     	; 0xc90 <snakeHandler+0x128>
     c6e:	80 93 da 02 	sts	0x02DA, r24	; 0x8002da <snakeCurrentMove>
     c72:	0e c0       	rjmp	.+28     	; 0xc90 <snakeHandler+0x128>
     c74:	83 30       	cpi	r24, 0x03	; 3
     c76:	61 f0       	breq	.+24     	; 0xc90 <snakeHandler+0x128>
     c78:	80 93 da 02 	sts	0x02DA, r24	; 0x8002da <snakeCurrentMove>
     c7c:	09 c0       	rjmp	.+18     	; 0xc90 <snakeHandler+0x128>
     c7e:	81 30       	cpi	r24, 0x01	; 1
     c80:	39 f0       	breq	.+14     	; 0xc90 <snakeHandler+0x128>
     c82:	80 93 da 02 	sts	0x02DA, r24	; 0x8002da <snakeCurrentMove>
     c86:	04 c0       	rjmp	.+8      	; 0xc90 <snakeHandler+0x128>
     c88:	82 30       	cpi	r24, 0x02	; 2
     c8a:	11 f0       	breq	.+4      	; 0xc90 <snakeHandler+0x128>
     c8c:	80 93 da 02 	sts	0x02DA, r24	; 0x8002da <snakeCurrentMove>
     c90:	85 e0       	ldi	r24, 0x05	; 5
     c92:	0e 94 a0 10 	call	0x2140	; 0x2140 <Timer__MsGetStatus>
     c96:	81 11       	cpse	r24, r1
     c98:	58 c0       	rjmp	.+176    	; 0xd4a <snakeHandler+0x1e2>
     c9a:	83 e0       	ldi	r24, 0x03	; 3
     c9c:	80 93 d3 02 	sts	0x02D3, r24	; 0x8002d3 <snakeStep>
     ca0:	08 95       	ret
     ca2:	80 91 da 02 	lds	r24, 0x02DA	; 0x8002da <snakeCurrentMove>
     ca6:	0e 94 39 04 	call	0x872	; 0x872 <snakeNextMove>
     caa:	80 91 e5 02 	lds	r24, 0x02E5	; 0x8002e5 <snakeArryHead>
     cae:	90 91 e6 02 	lds	r25, 0x02E6	; 0x8002e6 <snakeArryHead+0x1>
     cb2:	0e 94 0d 05 	call	0xa1a	; 0xa1a <snakeDisplayUpdate>
     cb6:	80 91 d7 02 	lds	r24, 0x02D7	; 0x8002d7 <snakeArryTail>
     cba:	90 91 d8 02 	lds	r25, 0x02D8	; 0x8002d8 <snakeArryTail+0x1>
     cbe:	0e 94 0d 05 	call	0xa1a	; 0xa1a <snakeDisplayUpdate>
     cc2:	80 91 dd 02 	lds	r24, 0x02DD	; 0x8002dd <snakePrevArryTail>
     cc6:	90 91 de 02 	lds	r25, 0x02DE	; 0x8002de <snakePrevArryTail+0x1>
     cca:	0e 94 0d 05 	call	0xa1a	; 0xa1a <snakeDisplayUpdate>
     cce:	80 91 da 02 	lds	r24, 0x02DA	; 0x8002da <snakeCurrentMove>
     cd2:	80 93 d9 02 	sts	0x02D9, r24	; 0x8002d9 <snakePrevMove>
     cd6:	60 91 d6 02 	lds	r22, 0x02D6	; 0x8002d6 <snakeSpeed>
     cda:	70 e0       	ldi	r23, 0x00	; 0
     cdc:	85 e0       	ldi	r24, 0x05	; 5
     cde:	0e 94 73 10 	call	0x20e6	; 0x20e6 <Timer__MsSet>
     ce2:	84 e0       	ldi	r24, 0x04	; 4
     ce4:	80 93 d3 02 	sts	0x02D3, r24	; 0x8002d3 <snakeStep>
     ce8:	08 95       	ret
     cea:	80 91 d5 02 	lds	r24, 0x02D5	; 0x8002d5 <snakeConclusion>
     cee:	81 30       	cpi	r24, 0x01	; 1
     cf0:	e9 f4       	brne	.+58     	; 0xd2c <snakeHandler+0x1c4>
     cf2:	80 91 d2 02 	lds	r24, 0x02D2	; 0x8002d2 <snakeSize>
     cf6:	88 23       	and	r24, r24
     cf8:	91 f0       	breq	.+36     	; 0xd1e <snakeHandler+0x1b6>
     cfa:	85 e0       	ldi	r24, 0x05	; 5
     cfc:	0e 94 a0 10 	call	0x2140	; 0x2140 <Timer__MsGetStatus>
     d00:	81 11       	cpse	r24, r1
     d02:	23 c0       	rjmp	.+70     	; 0xd4a <snakeHandler+0x1e2>
     d04:	0e 94 88 05 	call	0xb10	; 0xb10 <snakeEnd>
     d08:	80 91 d2 02 	lds	r24, 0x02D2	; 0x8002d2 <snakeSize>
     d0c:	81 50       	subi	r24, 0x01	; 1
     d0e:	80 93 d2 02 	sts	0x02D2, r24	; 0x8002d2 <snakeSize>
     d12:	62 e3       	ldi	r22, 0x32	; 50
     d14:	70 e0       	ldi	r23, 0x00	; 0
     d16:	85 e0       	ldi	r24, 0x05	; 5
     d18:	0e 94 73 10 	call	0x20e6	; 0x20e6 <Timer__MsSet>
     d1c:	08 95       	ret
     d1e:	10 92 d3 02 	sts	0x02D3, r1	; 0x8002d3 <snakeStep>
     d22:	0e 94 49 0c 	call	0x1892	; 0x1892 <clearDisplay>
     d26:	0e 94 7a 00 	call	0xf4	; 0xf4 <resetGameMode>
     d2a:	08 95       	ret
     d2c:	80 91 d1 02 	lds	r24, 0x02D1	; 0x8002d1 <snakeAppleFlag>
     d30:	81 11       	cpse	r24, r1
     d32:	08 c0       	rjmp	.+16     	; 0xd44 <snakeHandler+0x1dc>
     d34:	0e 94 fa 03 	call	0x7f4	; 0x7f4 <snakePlaceApple>
     d38:	80 91 e3 02 	lds	r24, 0x02E3	; 0x8002e3 <snakeAppleAddress>
     d3c:	90 91 e4 02 	lds	r25, 0x02E4	; 0x8002e4 <snakeAppleAddress+0x1>
     d40:	0e 94 0d 05 	call	0xa1a	; 0xa1a <snakeDisplayUpdate>
     d44:	82 e0       	ldi	r24, 0x02	; 2
     d46:	80 93 d3 02 	sts	0x02D3, r24	; 0x8002d3 <snakeStep>
     d4a:	08 95       	ret

00000d4c <tictactoeInitialize>:
     d4c:	10 92 e7 02 	sts	0x02E7, r1	; 0x8002e7 <tictactoeStatus>
     d50:	89 e0       	ldi	r24, 0x09	; 9
     d52:	80 93 ec 02 	sts	0x02EC, r24	; 0x8002ec <positionInput>
     d56:	0e 94 49 0c 	call	0x1892	; 0x1892 <clearDisplay>
     d5a:	08 95       	ret

00000d5c <tictactoeGenerateMash>:
     d5c:	cf 93       	push	r28
     d5e:	c8 e0       	ldi	r28, 0x08	; 8
     d60:	31 c0       	rjmp	.+98     	; 0xdc4 <tictactoeGenerateMash+0x68>
     d62:	22 e0       	ldi	r18, 0x02	; 2
     d64:	41 e0       	ldi	r20, 0x01	; 1
     d66:	63 e0       	ldi	r22, 0x03	; 3
     d68:	8c 2f       	mov	r24, r28
     d6a:	0e 94 75 0b 	call	0x16ea	; 0x16ea <changeIndividual>
     d6e:	22 e0       	ldi	r18, 0x02	; 2
     d70:	42 e0       	ldi	r20, 0x02	; 2
     d72:	63 e0       	ldi	r22, 0x03	; 3
     d74:	8c 2f       	mov	r24, r28
     d76:	0e 94 75 0b 	call	0x16ea	; 0x16ea <changeIndividual>
     d7a:	22 e0       	ldi	r18, 0x02	; 2
     d7c:	41 e0       	ldi	r20, 0x01	; 1
     d7e:	6c 2f       	mov	r22, r28
     d80:	83 e0       	ldi	r24, 0x03	; 3
     d82:	0e 94 75 0b 	call	0x16ea	; 0x16ea <changeIndividual>
     d86:	22 e0       	ldi	r18, 0x02	; 2
     d88:	42 e0       	ldi	r20, 0x02	; 2
     d8a:	6c 2f       	mov	r22, r28
     d8c:	83 e0       	ldi	r24, 0x03	; 3
     d8e:	0e 94 75 0b 	call	0x16ea	; 0x16ea <changeIndividual>
     d92:	22 e0       	ldi	r18, 0x02	; 2
     d94:	41 e0       	ldi	r20, 0x01	; 1
     d96:	66 e0       	ldi	r22, 0x06	; 6
     d98:	8c 2f       	mov	r24, r28
     d9a:	0e 94 75 0b 	call	0x16ea	; 0x16ea <changeIndividual>
     d9e:	22 e0       	ldi	r18, 0x02	; 2
     da0:	42 e0       	ldi	r20, 0x02	; 2
     da2:	66 e0       	ldi	r22, 0x06	; 6
     da4:	8c 2f       	mov	r24, r28
     da6:	0e 94 75 0b 	call	0x16ea	; 0x16ea <changeIndividual>
     daa:	22 e0       	ldi	r18, 0x02	; 2
     dac:	41 e0       	ldi	r20, 0x01	; 1
     dae:	6c 2f       	mov	r22, r28
     db0:	86 e0       	ldi	r24, 0x06	; 6
     db2:	0e 94 75 0b 	call	0x16ea	; 0x16ea <changeIndividual>
     db6:	22 e0       	ldi	r18, 0x02	; 2
     db8:	42 e0       	ldi	r20, 0x02	; 2
     dba:	6c 2f       	mov	r22, r28
     dbc:	86 e0       	ldi	r24, 0x06	; 6
     dbe:	0e 94 75 0b 	call	0x16ea	; 0x16ea <changeIndividual>
     dc2:	c1 50       	subi	r28, 0x01	; 1
     dc4:	c1 11       	cpse	r28, r1
     dc6:	cd cf       	rjmp	.-102    	; 0xd62 <tictactoeGenerateMash+0x6>
     dc8:	cf 91       	pop	r28
     dca:	08 95       	ret

00000dcc <tictactoeEvaluate>:
     dcc:	80 91 ea 02 	lds	r24, 0x02EA	; 0x8002ea <jogadorAtual>
     dd0:	90 e0       	ldi	r25, 0x00	; 0
     dd2:	fc 01       	movw	r30, r24
     dd4:	ef 5c       	subi	r30, 0xCF	; 207
     dd6:	fc 4f       	sbci	r31, 0xFC	; 252
     dd8:	20 81       	ld	r18, Z
     dda:	22 23       	and	r18, r18
     ddc:	81 f0       	breq	.+32     	; 0xdfe <tictactoeEvaluate+0x32>
     dde:	fc 01       	movw	r30, r24
     de0:	ef 5c       	subi	r30, 0xCF	; 207
     de2:	fc 4f       	sbci	r31, 0xFC	; 252
     de4:	31 85       	ldd	r19, Z+9	; 0x09
     de6:	33 23       	and	r19, r19
     de8:	51 f0       	breq	.+20     	; 0xdfe <tictactoeEvaluate+0x32>
     dea:	fc 01       	movw	r30, r24
     dec:	ef 5c       	subi	r30, 0xCF	; 207
     dee:	fc 4f       	sbci	r31, 0xFC	; 252
     df0:	32 89       	ldd	r19, Z+18	; 0x12
     df2:	33 23       	and	r19, r19
     df4:	21 f0       	breq	.+8      	; 0xdfe <tictactoeEvaluate+0x32>
     df6:	81 e0       	ldi	r24, 0x01	; 1
     df8:	80 93 eb 02 	sts	0x02EB, r24	; 0x8002eb <gameEvaluation>
     dfc:	08 95       	ret
     dfe:	fc 01       	movw	r30, r24
     e00:	e7 58       	subi	r30, 0x87	; 135
     e02:	fc 4f       	sbci	r31, 0xFC	; 252
     e04:	30 81       	ld	r19, Z
     e06:	33 23       	and	r19, r19
     e08:	81 f0       	breq	.+32     	; 0xe2a <tictactoeEvaluate+0x5e>
     e0a:	fc 01       	movw	r30, r24
     e0c:	ee 57       	subi	r30, 0x7E	; 126
     e0e:	fc 4f       	sbci	r31, 0xFC	; 252
     e10:	40 81       	ld	r20, Z
     e12:	44 23       	and	r20, r20
     e14:	51 f0       	breq	.+20     	; 0xe2a <tictactoeEvaluate+0x5e>
     e16:	fc 01       	movw	r30, r24
     e18:	e5 57       	subi	r30, 0x75	; 117
     e1a:	fc 4f       	sbci	r31, 0xFC	; 252
     e1c:	40 81       	ld	r20, Z
     e1e:	44 23       	and	r20, r20
     e20:	21 f0       	breq	.+8      	; 0xe2a <tictactoeEvaluate+0x5e>
     e22:	81 e0       	ldi	r24, 0x01	; 1
     e24:	80 93 eb 02 	sts	0x02EB, r24	; 0x8002eb <gameEvaluation>
     e28:	08 95       	ret
     e2a:	fc 01       	movw	r30, r24
     e2c:	ef 53       	subi	r30, 0x3F	; 63
     e2e:	fc 4f       	sbci	r31, 0xFC	; 252
     e30:	40 81       	ld	r20, Z
     e32:	44 23       	and	r20, r20
     e34:	81 f0       	breq	.+32     	; 0xe56 <tictactoeEvaluate+0x8a>
     e36:	fc 01       	movw	r30, r24
     e38:	e6 53       	subi	r30, 0x36	; 54
     e3a:	fc 4f       	sbci	r31, 0xFC	; 252
     e3c:	50 81       	ld	r21, Z
     e3e:	55 23       	and	r21, r21
     e40:	51 f0       	breq	.+20     	; 0xe56 <tictactoeEvaluate+0x8a>
     e42:	fc 01       	movw	r30, r24
     e44:	ed 52       	subi	r30, 0x2D	; 45
     e46:	fc 4f       	sbci	r31, 0xFC	; 252
     e48:	50 81       	ld	r21, Z
     e4a:	55 23       	and	r21, r21
     e4c:	21 f0       	breq	.+8      	; 0xe56 <tictactoeEvaluate+0x8a>
     e4e:	81 e0       	ldi	r24, 0x01	; 1
     e50:	80 93 eb 02 	sts	0x02EB, r24	; 0x8002eb <gameEvaluation>
     e54:	08 95       	ret
     e56:	22 23       	and	r18, r18
     e58:	41 f0       	breq	.+16     	; 0xe6a <tictactoeEvaluate+0x9e>
     e5a:	33 23       	and	r19, r19
     e5c:	31 f0       	breq	.+12     	; 0xe6a <tictactoeEvaluate+0x9e>
     e5e:	44 23       	and	r20, r20
     e60:	21 f0       	breq	.+8      	; 0xe6a <tictactoeEvaluate+0x9e>
     e62:	81 e0       	ldi	r24, 0x01	; 1
     e64:	80 93 eb 02 	sts	0x02EB, r24	; 0x8002eb <gameEvaluation>
     e68:	08 95       	ret
     e6a:	fc 01       	movw	r30, r24
     e6c:	ef 5c       	subi	r30, 0xCF	; 207
     e6e:	fc 4f       	sbci	r31, 0xFC	; 252
     e70:	31 85       	ldd	r19, Z+9	; 0x09
     e72:	33 23       	and	r19, r19
     e74:	81 f0       	breq	.+32     	; 0xe96 <tictactoeEvaluate+0xca>
     e76:	fc 01       	movw	r30, r24
     e78:	ee 57       	subi	r30, 0x7E	; 126
     e7a:	fc 4f       	sbci	r31, 0xFC	; 252
     e7c:	30 81       	ld	r19, Z
     e7e:	33 23       	and	r19, r19
     e80:	51 f0       	breq	.+20     	; 0xe96 <tictactoeEvaluate+0xca>
     e82:	fc 01       	movw	r30, r24
     e84:	e6 53       	subi	r30, 0x36	; 54
     e86:	fc 4f       	sbci	r31, 0xFC	; 252
     e88:	30 81       	ld	r19, Z
     e8a:	33 23       	and	r19, r19
     e8c:	21 f0       	breq	.+8      	; 0xe96 <tictactoeEvaluate+0xca>
     e8e:	81 e0       	ldi	r24, 0x01	; 1
     e90:	80 93 eb 02 	sts	0x02EB, r24	; 0x8002eb <gameEvaluation>
     e94:	08 95       	ret
     e96:	fc 01       	movw	r30, r24
     e98:	ef 5c       	subi	r30, 0xCF	; 207
     e9a:	fc 4f       	sbci	r31, 0xFC	; 252
     e9c:	32 89       	ldd	r19, Z+18	; 0x12
     e9e:	33 23       	and	r19, r19
     ea0:	81 f0       	breq	.+32     	; 0xec2 <tictactoeEvaluate+0xf6>
     ea2:	fc 01       	movw	r30, r24
     ea4:	e5 57       	subi	r30, 0x75	; 117
     ea6:	fc 4f       	sbci	r31, 0xFC	; 252
     ea8:	50 81       	ld	r21, Z
     eaa:	55 23       	and	r21, r21
     eac:	51 f0       	breq	.+20     	; 0xec2 <tictactoeEvaluate+0xf6>
     eae:	fc 01       	movw	r30, r24
     eb0:	ed 52       	subi	r30, 0x2D	; 45
     eb2:	fc 4f       	sbci	r31, 0xFC	; 252
     eb4:	50 81       	ld	r21, Z
     eb6:	55 23       	and	r21, r21
     eb8:	21 f0       	breq	.+8      	; 0xec2 <tictactoeEvaluate+0xf6>
     eba:	81 e0       	ldi	r24, 0x01	; 1
     ebc:	80 93 eb 02 	sts	0x02EB, r24	; 0x8002eb <gameEvaluation>
     ec0:	08 95       	ret
     ec2:	22 23       	and	r18, r18
     ec4:	81 f0       	breq	.+32     	; 0xee6 <tictactoeEvaluate+0x11a>
     ec6:	fc 01       	movw	r30, r24
     ec8:	ee 57       	subi	r30, 0x7E	; 126
     eca:	fc 4f       	sbci	r31, 0xFC	; 252
     ecc:	20 81       	ld	r18, Z
     ece:	22 23       	and	r18, r18
     ed0:	51 f0       	breq	.+20     	; 0xee6 <tictactoeEvaluate+0x11a>
     ed2:	fc 01       	movw	r30, r24
     ed4:	ed 52       	subi	r30, 0x2D	; 45
     ed6:	fc 4f       	sbci	r31, 0xFC	; 252
     ed8:	20 81       	ld	r18, Z
     eda:	22 23       	and	r18, r18
     edc:	21 f0       	breq	.+8      	; 0xee6 <tictactoeEvaluate+0x11a>
     ede:	81 e0       	ldi	r24, 0x01	; 1
     ee0:	80 93 eb 02 	sts	0x02EB, r24	; 0x8002eb <gameEvaluation>
     ee4:	08 95       	ret
     ee6:	33 23       	and	r19, r19
     ee8:	61 f0       	breq	.+24     	; 0xf02 <tictactoeEvaluate+0x136>
     eea:	fc 01       	movw	r30, r24
     eec:	ee 57       	subi	r30, 0x7E	; 126
     eee:	fc 4f       	sbci	r31, 0xFC	; 252
     ef0:	80 81       	ld	r24, Z
     ef2:	88 23       	and	r24, r24
     ef4:	31 f0       	breq	.+12     	; 0xf02 <tictactoeEvaluate+0x136>
     ef6:	44 23       	and	r20, r20
     ef8:	21 f0       	breq	.+8      	; 0xf02 <tictactoeEvaluate+0x136>
     efa:	81 e0       	ldi	r24, 0x01	; 1
     efc:	80 93 eb 02 	sts	0x02EB, r24	; 0x8002eb <gameEvaluation>
     f00:	08 95       	ret
     f02:	80 91 ed 02 	lds	r24, 0x02ED	; 0x8002ed <turno>
     f06:	88 30       	cpi	r24, 0x08	; 8
     f08:	20 f0       	brcs	.+8      	; 0xf12 <tictactoeEvaluate+0x146>
     f0a:	82 e0       	ldi	r24, 0x02	; 2
     f0c:	80 93 eb 02 	sts	0x02EB, r24	; 0x8002eb <gameEvaluation>
     f10:	08 95       	ret
     f12:	10 92 eb 02 	sts	0x02EB, r1	; 0x8002eb <gameEvaluation>
     f16:	08 95       	ret

00000f18 <getPosition>:
     f18:	89 30       	cpi	r24, 0x09	; 9
     f1a:	99 f0       	breq	.+38     	; 0xf42 <getPosition+0x2a>
     f1c:	9b ea       	ldi	r25, 0xAB	; 171
     f1e:	89 9f       	mul	r24, r25
     f20:	91 2d       	mov	r25, r1
     f22:	11 24       	eor	r1, r1
     f24:	96 95       	lsr	r25
     f26:	29 2f       	mov	r18, r25
     f28:	22 0f       	add	r18, r18
     f2a:	92 0f       	add	r25, r18
     f2c:	28 2f       	mov	r18, r24
     f2e:	29 1b       	sub	r18, r25
     f30:	92 2f       	mov	r25, r18
     f32:	22 0f       	add	r18, r18
     f34:	29 0f       	add	r18, r25
     f36:	20 93 e8 02 	sts	0x02E8, r18	; 0x8002e8 <colunaAtual>
     f3a:	89 1b       	sub	r24, r25
     f3c:	80 93 e9 02 	sts	0x02E9, r24	; 0x8002e9 <linhaAtual>
     f40:	08 95       	ret
     f42:	84 e0       	ldi	r24, 0x04	; 4
     f44:	80 93 e8 02 	sts	0x02E8, r24	; 0x8002e8 <colunaAtual>
     f48:	80 93 e9 02 	sts	0x02E9, r24	; 0x8002e9 <linhaAtual>
     f4c:	08 95       	ret

00000f4e <tictactoeHandler>:
     f4e:	0e 94 d5 0c 	call	0x19aa	; 0x19aa <getKeyBuffer>
     f52:	80 93 ec 02 	sts	0x02EC, r24	; 0x8002ec <positionInput>
     f56:	0e 94 8c 07 	call	0xf18	; 0xf18 <getPosition>
     f5a:	e0 91 e7 02 	lds	r30, 0x02E7	; 0x8002e7 <tictactoeStatus>
     f5e:	8e 2f       	mov	r24, r30
     f60:	90 e0       	ldi	r25, 0x00	; 0
     f62:	87 30       	cpi	r24, 0x07	; 7
     f64:	91 05       	cpc	r25, r1
     f66:	08 f0       	brcs	.+2      	; 0xf6a <tictactoeHandler+0x1c>
     f68:	a4 c0       	rjmp	.+328    	; 0x10b2 <tictactoeHandler+0x164>
     f6a:	fc 01       	movw	r30, r24
     f6c:	e2 5b       	subi	r30, 0xB2	; 178
     f6e:	ff 4f       	sbci	r31, 0xFF	; 255
     f70:	0c 94 d8 10 	jmp	0x21b0	; 0x21b0 <__tablejump2__>
     f74:	84 e0       	ldi	r24, 0x04	; 4
     f76:	80 93 e9 02 	sts	0x02E9, r24	; 0x8002e9 <linhaAtual>
     f7a:	80 93 e8 02 	sts	0x02E8, r24	; 0x8002e8 <colunaAtual>
     f7e:	10 92 eb 02 	sts	0x02EB, r1	; 0x8002eb <gameEvaluation>
     f82:	10 92 ed 02 	sts	0x02ED, r1	; 0x8002ed <turno>
     f86:	81 e0       	ldi	r24, 0x01	; 1
     f88:	80 93 e7 02 	sts	0x02E7, r24	; 0x8002e7 <tictactoeStatus>
     f8c:	64 ef       	ldi	r22, 0xF4	; 244
     f8e:	71 e0       	ldi	r23, 0x01	; 1
     f90:	83 e0       	ldi	r24, 0x03	; 3
     f92:	0e 94 73 10 	call	0x20e6	; 0x20e6 <Timer__MsSet>
     f96:	6f e1       	ldi	r22, 0x1F	; 31
     f98:	80 e0       	ldi	r24, 0x00	; 0
     f9a:	0e 94 22 0c 	call	0x1844	; 0x1844 <setDisplay>
     f9e:	6f e1       	ldi	r22, 0x1F	; 31
     fa0:	81 e0       	ldi	r24, 0x01	; 1
     fa2:	0e 94 22 0c 	call	0x1844	; 0x1844 <setDisplay>
     fa6:	08 95       	ret
     fa8:	83 e0       	ldi	r24, 0x03	; 3
     faa:	0e 94 a0 10 	call	0x2140	; 0x2140 <Timer__MsGetStatus>
     fae:	81 11       	cpse	r24, r1
     fb0:	07 c0       	rjmp	.+14     	; 0xfc0 <tictactoeHandler+0x72>
     fb2:	0e 94 49 0c 	call	0x1892	; 0x1892 <clearDisplay>
     fb6:	0e 94 ae 06 	call	0xd5c	; 0xd5c <tictactoeGenerateMash>
     fba:	82 e0       	ldi	r24, 0x02	; 2
     fbc:	80 93 e7 02 	sts	0x02E7, r24	; 0x8002e7 <tictactoeStatus>
     fc0:	80 91 ec 02 	lds	r24, 0x02EC	; 0x8002ec <positionInput>
     fc4:	0e 94 8c 07 	call	0xf18	; 0xf18 <getPosition>
     fc8:	60 91 e8 02 	lds	r22, 0x02E8	; 0x8002e8 <colunaAtual>
     fcc:	80 91 e9 02 	lds	r24, 0x02E9	; 0x8002e9 <linhaAtual>
     fd0:	0e 94 4f 0b 	call	0x169e	; 0x169e <getTictactoePositionValue>
     fd4:	89 2b       	or	r24, r25
     fd6:	09 f0       	breq	.+2      	; 0xfda <tictactoeHandler+0x8c>
     fd8:	6c c0       	rjmp	.+216    	; 0x10b2 <tictactoeHandler+0x164>
     fda:	80 91 ec 02 	lds	r24, 0x02EC	; 0x8002ec <positionInput>
     fde:	89 30       	cpi	r24, 0x09	; 9
     fe0:	09 f4       	brne	.+2      	; 0xfe4 <tictactoeHandler+0x96>
     fe2:	67 c0       	rjmp	.+206    	; 0x10b2 <tictactoeHandler+0x164>
     fe4:	83 e0       	ldi	r24, 0x03	; 3
     fe6:	80 93 e7 02 	sts	0x02E7, r24	; 0x8002e7 <tictactoeStatus>
     fea:	08 95       	ret
     fec:	40 91 ed 02 	lds	r20, 0x02ED	; 0x8002ed <turno>
     ff0:	41 70       	andi	r20, 0x01	; 1
     ff2:	40 93 ea 02 	sts	0x02EA, r20	; 0x8002ea <jogadorAtual>
     ff6:	2f e1       	ldi	r18, 0x1F	; 31
     ff8:	60 91 e8 02 	lds	r22, 0x02E8	; 0x8002e8 <colunaAtual>
     ffc:	80 91 e9 02 	lds	r24, 0x02E9	; 0x8002e9 <linhaAtual>
    1000:	0e 94 98 0b 	call	0x1730	; 0x1730 <changeHouse>
    1004:	80 91 ea 02 	lds	r24, 0x02EA	; 0x8002ea <jogadorAtual>
    1008:	88 23       	and	r24, r24
    100a:	21 f0       	breq	.+8      	; 0x1014 <tictactoeHandler+0xc6>
    100c:	80 e0       	ldi	r24, 0x00	; 0
    100e:	0e 94 65 0e 	call	0x1cca	; 0x1cca <setSound>
    1012:	03 c0       	rjmp	.+6      	; 0x101a <tictactoeHandler+0xcc>
    1014:	81 e0       	ldi	r24, 0x01	; 1
    1016:	0e 94 65 0e 	call	0x1cca	; 0x1cca <setSound>
    101a:	84 e0       	ldi	r24, 0x04	; 4
    101c:	80 93 e7 02 	sts	0x02E7, r24	; 0x8002e7 <tictactoeStatus>
    1020:	08 95       	ret
    1022:	0e 94 e6 06 	call	0xdcc	; 0xdcc <tictactoeEvaluate>
    1026:	80 91 eb 02 	lds	r24, 0x02EB	; 0x8002eb <gameEvaluation>
    102a:	81 11       	cpse	r24, r1
    102c:	09 c0       	rjmp	.+18     	; 0x1040 <tictactoeHandler+0xf2>
    102e:	80 91 ed 02 	lds	r24, 0x02ED	; 0x8002ed <turno>
    1032:	8f 5f       	subi	r24, 0xFF	; 255
    1034:	80 93 ed 02 	sts	0x02ED, r24	; 0x8002ed <turno>
    1038:	82 e0       	ldi	r24, 0x02	; 2
    103a:	80 93 e7 02 	sts	0x02E7, r24	; 0x8002e7 <tictactoeStatus>
    103e:	08 95       	ret
    1040:	0e 94 26 0b 	call	0x164c	; 0x164c <displayGetAnimationStatus>
    1044:	81 30       	cpi	r24, 0x01	; 1
    1046:	a9 f5       	brne	.+106    	; 0x10b2 <tictactoeHandler+0x164>
    1048:	0e 94 5d 0e 	call	0x1cba	; 0x1cba <soundGetSoundStatus>
    104c:	81 30       	cpi	r24, 0x01	; 1
    104e:	89 f5       	brne	.+98     	; 0x10b2 <tictactoeHandler+0x164>
    1050:	85 e0       	ldi	r24, 0x05	; 5
    1052:	80 93 e7 02 	sts	0x02E7, r24	; 0x8002e7 <tictactoeStatus>
    1056:	08 95       	ret
    1058:	80 91 eb 02 	lds	r24, 0x02EB	; 0x8002eb <gameEvaluation>
    105c:	81 30       	cpi	r24, 0x01	; 1
    105e:	81 f4       	brne	.+32     	; 0x1080 <tictactoeHandler+0x132>
    1060:	80 91 ea 02 	lds	r24, 0x02EA	; 0x8002ea <jogadorAtual>
    1064:	0e 94 2e 0b 	call	0x165c	; 0x165c <displaySetAnimation>
    1068:	80 91 ed 02 	lds	r24, 0x02ED	; 0x8002ed <turno>
    106c:	80 ff       	sbrs	r24, 0
    106e:	04 c0       	rjmp	.+8      	; 0x1078 <tictactoeHandler+0x12a>
    1070:	83 e0       	ldi	r24, 0x03	; 3
    1072:	0e 94 65 0e 	call	0x1cca	; 0x1cca <setSound>
    1076:	0b c0       	rjmp	.+22     	; 0x108e <tictactoeHandler+0x140>
    1078:	82 e0       	ldi	r24, 0x02	; 2
    107a:	0e 94 65 0e 	call	0x1cca	; 0x1cca <setSound>
    107e:	07 c0       	rjmp	.+14     	; 0x108e <tictactoeHandler+0x140>
    1080:	82 30       	cpi	r24, 0x02	; 2
    1082:	29 f4       	brne	.+10     	; 0x108e <tictactoeHandler+0x140>
    1084:	0e 94 2e 0b 	call	0x165c	; 0x165c <displaySetAnimation>
    1088:	84 e0       	ldi	r24, 0x04	; 4
    108a:	0e 94 65 0e 	call	0x1cca	; 0x1cca <setSound>
    108e:	68 ee       	ldi	r22, 0xE8	; 232
    1090:	73 e0       	ldi	r23, 0x03	; 3
    1092:	83 e0       	ldi	r24, 0x03	; 3
    1094:	0e 94 73 10 	call	0x20e6	; 0x20e6 <Timer__MsSet>
    1098:	86 e0       	ldi	r24, 0x06	; 6
    109a:	80 93 e7 02 	sts	0x02E7, r24	; 0x8002e7 <tictactoeStatus>
    109e:	08 95       	ret
    10a0:	83 e0       	ldi	r24, 0x03	; 3
    10a2:	0e 94 a0 10 	call	0x2140	; 0x2140 <Timer__MsGetStatus>
    10a6:	81 11       	cpse	r24, r1
    10a8:	04 c0       	rjmp	.+8      	; 0x10b2 <tictactoeHandler+0x164>
    10aa:	0e 94 7a 00 	call	0xf4	; 0xf4 <resetGameMode>
    10ae:	10 92 e7 02 	sts	0x02E7, r1	; 0x8002e7 <tictactoeStatus>
    10b2:	08 95       	ret

000010b4 <ADC__Initialize>:
    10b4:	10 92 fa 02 	sts	0x02FA, r1	; 0x8002fa <Adc_Step>
    10b8:	10 92 fc 02 	sts	0x02FC, r1	; 0x8002fc <Sampling_Time+0x1>
    10bc:	10 92 fb 02 	sts	0x02FB, r1	; 0x8002fb <Sampling_Time>
    10c0:	10 92 7e 00 	sts	0x007E, r1	; 0x80007e <__TEXT_REGION_LENGTH__+0x7f807e>
    10c4:	80 e0       	ldi	r24, 0x00	; 0
    10c6:	1b c0       	rjmp	.+54     	; 0x10fe <ADC__Initialize+0x4a>
    10c8:	28 2f       	mov	r18, r24
    10ca:	30 e0       	ldi	r19, 0x00	; 0
    10cc:	f9 01       	movw	r30, r18
    10ce:	ee 0f       	add	r30, r30
    10d0:	ff 1f       	adc	r31, r31
    10d2:	e2 51       	subi	r30, 0x12	; 18
    10d4:	fd 4f       	sbci	r31, 0xFD	; 253
    10d6:	11 82       	std	Z+1, r1	; 0x01
    10d8:	10 82       	st	Z, r1
    10da:	f9 01       	movw	r30, r18
    10dc:	ea 5b       	subi	r30, 0xBA	; 186
    10de:	fe 4f       	sbci	r31, 0xFE	; 254
    10e0:	90 81       	ld	r25, Z
    10e2:	91 30       	cpi	r25, 0x01	; 1
    10e4:	59 f4       	brne	.+22     	; 0x10fc <ADC__Initialize+0x48>
    10e6:	86 30       	cpi	r24, 0x06	; 6
    10e8:	48 f4       	brcc	.+18     	; 0x10fc <ADC__Initialize+0x48>
    10ea:	e8 e7       	ldi	r30, 0x78	; 120
    10ec:	f0 e0       	ldi	r31, 0x00	; 0
    10ee:	46 81       	ldd	r20, Z+6	; 0x06
    10f0:	d9 01       	movw	r26, r18
    10f2:	a0 5c       	subi	r26, 0xC0	; 192
    10f4:	be 4f       	sbci	r27, 0xFE	; 254
    10f6:	9c 91       	ld	r25, X
    10f8:	94 2b       	or	r25, r20
    10fa:	96 83       	std	Z+6, r25	; 0x06
    10fc:	8f 5f       	subi	r24, 0xFF	; 255
    10fe:	86 30       	cpi	r24, 0x06	; 6
    1100:	18 f3       	brcs	.-58     	; 0x10c8 <ADC__Initialize+0x14>
    1102:	08 95       	ret

00001104 <ADC__Handler>:
    1104:	80 91 fa 02 	lds	r24, 0x02FA	; 0x8002fa <Adc_Step>
    1108:	82 30       	cpi	r24, 0x02	; 2
    110a:	c1 f1       	breq	.+112    	; 0x117c <ADC__Handler+0x78>
    110c:	28 f4       	brcc	.+10     	; 0x1118 <ADC__Handler+0x14>
    110e:	88 23       	and	r24, r24
    1110:	51 f0       	breq	.+20     	; 0x1126 <ADC__Handler+0x22>
    1112:	81 30       	cpi	r24, 0x01	; 1
    1114:	19 f1       	breq	.+70     	; 0x115c <ADC__Handler+0x58>
    1116:	6b c0       	rjmp	.+214    	; 0x11ee <ADC__Handler+0xea>
    1118:	83 30       	cpi	r24, 0x03	; 3
    111a:	09 f4       	brne	.+2      	; 0x111e <ADC__Handler+0x1a>
    111c:	3f c0       	rjmp	.+126    	; 0x119c <ADC__Handler+0x98>
    111e:	84 30       	cpi	r24, 0x04	; 4
    1120:	09 f4       	brne	.+2      	; 0x1124 <ADC__Handler+0x20>
    1122:	44 c0       	rjmp	.+136    	; 0x11ac <ADC__Handler+0xa8>
    1124:	64 c0       	rjmp	.+200    	; 0x11ee <ADC__Handler+0xea>
    1126:	80 91 fd 02 	lds	r24, 0x02FD	; 0x8002fd <Adc_Channel>
    112a:	8f 5f       	subi	r24, 0xFF	; 255
    112c:	80 93 fd 02 	sts	0x02FD, r24	; 0x8002fd <Adc_Channel>
    1130:	86 30       	cpi	r24, 0x06	; 6
    1132:	10 f0       	brcs	.+4      	; 0x1138 <ADC__Handler+0x34>
    1134:	10 92 fd 02 	sts	0x02FD, r1	; 0x8002fd <Adc_Channel>
    1138:	e0 91 fd 02 	lds	r30, 0x02FD	; 0x8002fd <Adc_Channel>
    113c:	f0 e0       	ldi	r31, 0x00	; 0
    113e:	ea 5b       	subi	r30, 0xBA	; 186
    1140:	fe 4f       	sbci	r31, 0xFE	; 254
    1142:	80 81       	ld	r24, Z
    1144:	81 30       	cpi	r24, 0x01	; 1
    1146:	09 f0       	breq	.+2      	; 0x114a <ADC__Handler+0x46>
    1148:	54 c0       	rjmp	.+168    	; 0x11f2 <ADC__Handler+0xee>
    114a:	80 93 fa 02 	sts	0x02FA, r24	; 0x8002fa <Adc_Step>
    114e:	82 e3       	ldi	r24, 0x32	; 50
    1150:	90 e0       	ldi	r25, 0x00	; 0
    1152:	90 93 fc 02 	sts	0x02FC, r25	; 0x8002fc <Sampling_Time+0x1>
    1156:	80 93 fb 02 	sts	0x02FB, r24	; 0x8002fb <Sampling_Time>
    115a:	08 95       	ret
    115c:	80 91 fb 02 	lds	r24, 0x02FB	; 0x8002fb <Sampling_Time>
    1160:	90 91 fc 02 	lds	r25, 0x02FC	; 0x8002fc <Sampling_Time+0x1>
    1164:	00 97       	sbiw	r24, 0x00	; 0
    1166:	31 f0       	breq	.+12     	; 0x1174 <ADC__Handler+0x70>
    1168:	01 97       	sbiw	r24, 0x01	; 1
    116a:	90 93 fc 02 	sts	0x02FC, r25	; 0x8002fc <Sampling_Time+0x1>
    116e:	80 93 fb 02 	sts	0x02FB, r24	; 0x8002fb <Sampling_Time>
    1172:	08 95       	ret
    1174:	82 e0       	ldi	r24, 0x02	; 2
    1176:	80 93 fa 02 	sts	0x02FA, r24	; 0x8002fa <Adc_Step>
    117a:	08 95       	ret
    117c:	e8 e7       	ldi	r30, 0x78	; 120
    117e:	f0 e0       	ldi	r31, 0x00	; 0
    1180:	94 81       	ldd	r25, Z+4	; 0x04
    1182:	80 91 fd 02 	lds	r24, 0x02FD	; 0x8002fd <Adc_Channel>
    1186:	89 2b       	or	r24, r25
    1188:	84 83       	std	Z+4, r24	; 0x04
    118a:	87 e8       	ldi	r24, 0x87	; 135
    118c:	82 83       	std	Z+2, r24	; 0x02
    118e:	82 81       	ldd	r24, Z+2	; 0x02
    1190:	80 64       	ori	r24, 0x40	; 64
    1192:	82 83       	std	Z+2, r24	; 0x02
    1194:	83 e0       	ldi	r24, 0x03	; 3
    1196:	80 93 fa 02 	sts	0x02FA, r24	; 0x8002fa <Adc_Step>
    119a:	08 95       	ret
    119c:	80 91 7a 00 	lds	r24, 0x007A	; 0x80007a <__TEXT_REGION_LENGTH__+0x7f807a>
    11a0:	86 fd       	sbrc	r24, 6
    11a2:	27 c0       	rjmp	.+78     	; 0x11f2 <ADC__Handler+0xee>
    11a4:	84 e0       	ldi	r24, 0x04	; 4
    11a6:	80 93 fa 02 	sts	0x02FA, r24	; 0x8002fa <Adc_Step>
    11aa:	08 95       	ret
    11ac:	80 91 7c 00 	lds	r24, 0x007C	; 0x80007c <__TEXT_REGION_LENGTH__+0x7f807c>
    11b0:	85 ff       	sbrs	r24, 5
    11b2:	04 c0       	rjmp	.+8      	; 0x11bc <ADC__Handler+0xb8>
    11b4:	80 91 79 00 	lds	r24, 0x0079	; 0x800079 <__TEXT_REGION_LENGTH__+0x7f8079>
    11b8:	90 e0       	ldi	r25, 0x00	; 0
    11ba:	02 c0       	rjmp	.+4      	; 0x11c0 <ADC__Handler+0xbc>
    11bc:	80 e0       	ldi	r24, 0x00	; 0
    11be:	90 e0       	ldi	r25, 0x00	; 0
    11c0:	20 91 7c 00 	lds	r18, 0x007C	; 0x80007c <__TEXT_REGION_LENGTH__+0x7f807c>
    11c4:	25 fd       	sbrc	r18, 5
    11c6:	07 c0       	rjmp	.+14     	; 0x11d6 <ADC__Handler+0xd2>
    11c8:	e8 e7       	ldi	r30, 0x78	; 120
    11ca:	f0 e0       	ldi	r31, 0x00	; 0
    11cc:	20 81       	ld	r18, Z
    11ce:	31 81       	ldd	r19, Z+1	; 0x01
    11d0:	80 e0       	ldi	r24, 0x00	; 0
    11d2:	93 2f       	mov	r25, r19
    11d4:	82 2b       	or	r24, r18
    11d6:	e0 91 fd 02 	lds	r30, 0x02FD	; 0x8002fd <Adc_Channel>
    11da:	f0 e0       	ldi	r31, 0x00	; 0
    11dc:	ee 0f       	add	r30, r30
    11de:	ff 1f       	adc	r31, r31
    11e0:	e2 51       	subi	r30, 0x12	; 18
    11e2:	fd 4f       	sbci	r31, 0xFD	; 253
    11e4:	91 83       	std	Z+1, r25	; 0x01
    11e6:	80 83       	st	Z, r24
    11e8:	10 92 fa 02 	sts	0x02FA, r1	; 0x8002fa <Adc_Step>
    11ec:	08 95       	ret
    11ee:	10 92 fa 02 	sts	0x02FA, r1	; 0x8002fa <Adc_Step>
    11f2:	08 95       	ret

000011f4 <ADC__ConfigModes>:
    11f4:	e8 e7       	ldi	r30, 0x78	; 120
    11f6:	f0 e0       	ldi	r31, 0x00	; 0
    11f8:	94 81       	ldd	r25, Z+4	; 0x04
    11fa:	9f 77       	andi	r25, 0x7F	; 127
    11fc:	94 83       	std	Z+4, r25	; 0x04
    11fe:	94 81       	ldd	r25, Z+4	; 0x04
    1200:	90 64       	ori	r25, 0x40	; 64
    1202:	94 83       	std	Z+4, r25	; 0x04
    1204:	82 30       	cpi	r24, 0x02	; 2
    1206:	60 f4       	brcc	.+24     	; 0x1220 <ADC__ConfigModes+0x2c>
    1208:	81 11       	cpse	r24, r1
    120a:	03 c0       	rjmp	.+6      	; 0x1212 <ADC__ConfigModes+0x1e>
    120c:	94 81       	ldd	r25, Z+4	; 0x04
    120e:	90 62       	ori	r25, 0x20	; 32
    1210:	94 83       	std	Z+4, r25	; 0x04
    1212:	81 30       	cpi	r24, 0x01	; 1
    1214:	29 f4       	brne	.+10     	; 0x1220 <ADC__ConfigModes+0x2c>
    1216:	e8 e7       	ldi	r30, 0x78	; 120
    1218:	f0 e0       	ldi	r31, 0x00	; 0
    121a:	84 81       	ldd	r24, Z+4	; 0x04
    121c:	8f 7d       	andi	r24, 0xDF	; 223
    121e:	84 83       	std	Z+4, r24	; 0x04
    1220:	62 30       	cpi	r22, 0x02	; 2
    1222:	88 f4       	brcc	.+34     	; 0x1246 <ADC__ConfigModes+0x52>
    1224:	61 11       	cpse	r22, r1
    1226:	05 c0       	rjmp	.+10     	; 0x1232 <ADC__ConfigModes+0x3e>
    1228:	e8 e7       	ldi	r30, 0x78	; 120
    122a:	f0 e0       	ldi	r31, 0x00	; 0
    122c:	82 81       	ldd	r24, Z+2	; 0x02
    122e:	8f 7d       	andi	r24, 0xDF	; 223
    1230:	82 83       	std	Z+2, r24	; 0x02
    1232:	61 30       	cpi	r22, 0x01	; 1
    1234:	41 f4       	brne	.+16     	; 0x1246 <ADC__ConfigModes+0x52>
    1236:	e8 e7       	ldi	r30, 0x78	; 120
    1238:	f0 e0       	ldi	r31, 0x00	; 0
    123a:	82 81       	ldd	r24, Z+2	; 0x02
    123c:	80 62       	ori	r24, 0x20	; 32
    123e:	82 83       	std	Z+2, r24	; 0x02
    1240:	83 81       	ldd	r24, Z+3	; 0x03
    1242:	88 7f       	andi	r24, 0xF8	; 248
    1244:	83 83       	std	Z+3, r24	; 0x03
    1246:	08 95       	ret

00001248 <ADC__GetValue>:
    1248:	86 30       	cpi	r24, 0x06	; 6
    124a:	48 f4       	brcc	.+18     	; 0x125e <ADC__GetValue+0x16>
    124c:	e8 2f       	mov	r30, r24
    124e:	f0 e0       	ldi	r31, 0x00	; 0
    1250:	ee 0f       	add	r30, r30
    1252:	ff 1f       	adc	r31, r31
    1254:	e2 51       	subi	r30, 0x12	; 18
    1256:	fd 4f       	sbci	r31, 0xFD	; 253
    1258:	80 81       	ld	r24, Z
    125a:	91 81       	ldd	r25, Z+1	; 0x01
    125c:	08 95       	ret
    125e:	80 e0       	ldi	r24, 0x00	; 0
    1260:	90 e0       	ldi	r25, 0x00	; 0
    1262:	08 95       	ret

00001264 <gpioPinConfig>:
    1264:	70 e0       	ldi	r23, 0x00	; 0
    1266:	fb 01       	movw	r30, r22
    1268:	ec 5a       	subi	r30, 0xAC	; 172
    126a:	fe 4f       	sbci	r31, 0xFE	; 254
    126c:	20 81       	ld	r18, Z
    126e:	fb 01       	movw	r30, r22
    1270:	e4 5b       	subi	r30, 0xB4	; 180
    1272:	fe 4f       	sbci	r31, 0xFE	; 254
    1274:	90 81       	ld	r25, Z
    1276:	44 23       	and	r20, r20
    1278:	79 f0       	breq	.+30     	; 0x1298 <gpioPinConfig+0x34>
    127a:	41 30       	cpi	r20, 0x01	; 1
    127c:	e1 f4       	brne	.+56     	; 0x12b6 <gpioPinConfig+0x52>
    127e:	e8 2f       	mov	r30, r24
    1280:	f0 e0       	ldi	r31, 0x00	; 0
    1282:	ee 0f       	add	r30, r30
    1284:	ff 1f       	adc	r31, r31
    1286:	e0 50       	subi	r30, 0x00	; 0
    1288:	ff 4f       	sbci	r31, 0xFF	; 255
    128a:	01 90       	ld	r0, Z+
    128c:	f0 81       	ld	r31, Z
    128e:	e0 2d       	mov	r30, r0
    1290:	81 81       	ldd	r24, Z+1	; 0x01
    1292:	28 2b       	or	r18, r24
    1294:	21 83       	std	Z+1, r18	; 0x01
    1296:	08 95       	ret
    1298:	e8 2f       	mov	r30, r24
    129a:	f0 e0       	ldi	r31, 0x00	; 0
    129c:	ee 0f       	add	r30, r30
    129e:	ff 1f       	adc	r31, r31
    12a0:	e0 50       	subi	r30, 0x00	; 0
    12a2:	ff 4f       	sbci	r31, 0xFF	; 255
    12a4:	01 90       	ld	r0, Z+
    12a6:	f0 81       	ld	r31, Z
    12a8:	e0 2d       	mov	r30, r0
    12aa:	81 81       	ldd	r24, Z+1	; 0x01
    12ac:	89 23       	and	r24, r25
    12ae:	81 83       	std	Z+1, r24	; 0x01
    12b0:	82 81       	ldd	r24, Z+2	; 0x02
    12b2:	98 2b       	or	r25, r24
    12b4:	92 83       	std	Z+2, r25	; 0x02
    12b6:	08 95       	ret

000012b8 <Pwm__SetTCFrequency>:
    12b8:	81 30       	cpi	r24, 0x01	; 1
    12ba:	31 f0       	breq	.+12     	; 0x12c8 <Pwm__SetTCFrequency+0x10>
    12bc:	18 f0       	brcs	.+6      	; 0x12c4 <Pwm__SetTCFrequency+0xc>
    12be:	82 30       	cpi	r24, 0x02	; 2
    12c0:	31 f0       	breq	.+12     	; 0x12ce <Pwm__SetTCFrequency+0x16>
    12c2:	08 95       	ret
    12c4:	85 b5       	in	r24, 0x25	; 37
    12c6:	08 95       	ret
    12c8:	80 91 81 00 	lds	r24, 0x0081	; 0x800081 <__TEXT_REGION_LENGTH__+0x7f8081>
    12cc:	08 95       	ret
    12ce:	61 15       	cp	r22, r1
    12d0:	71 05       	cpc	r23, r1
    12d2:	19 f4       	brne	.+6      	; 0x12da <Pwm__SetTCFrequency+0x22>
    12d4:	10 92 b1 00 	sts	0x00B1, r1	; 0x8000b1 <__TEXT_REGION_LENGTH__+0x7f80b1>
    12d8:	08 95       	ret
    12da:	60 38       	cpi	r22, 0x80	; 128
    12dc:	71 05       	cpc	r23, r1
    12de:	20 f4       	brcc	.+8      	; 0x12e8 <Pwm__SetTCFrequency+0x30>
    12e0:	87 e0       	ldi	r24, 0x07	; 7
    12e2:	80 93 b1 00 	sts	0x00B1, r24	; 0x8000b1 <__TEXT_REGION_LENGTH__+0x7f80b1>
    12e6:	08 95       	ret
    12e8:	6f 3f       	cpi	r22, 0xFF	; 255
    12ea:	71 05       	cpc	r23, r1
    12ec:	09 f0       	breq	.+2      	; 0x12f0 <Pwm__SetTCFrequency+0x38>
    12ee:	20 f4       	brcc	.+8      	; 0x12f8 <Pwm__SetTCFrequency+0x40>
    12f0:	86 e0       	ldi	r24, 0x06	; 6
    12f2:	80 93 b1 00 	sts	0x00B1, r24	; 0x8000b1 <__TEXT_REGION_LENGTH__+0x7f80b1>
    12f6:	08 95       	ret
    12f8:	61 15       	cp	r22, r1
    12fa:	82 e0       	ldi	r24, 0x02	; 2
    12fc:	78 07       	cpc	r23, r24
    12fe:	20 f4       	brcc	.+8      	; 0x1308 <Pwm__SetTCFrequency+0x50>
    1300:	85 e0       	ldi	r24, 0x05	; 5
    1302:	80 93 b1 00 	sts	0x00B1, r24	; 0x8000b1 <__TEXT_REGION_LENGTH__+0x7f80b1>
    1306:	08 95       	ret
    1308:	61 15       	cp	r22, r1
    130a:	84 e0       	ldi	r24, 0x04	; 4
    130c:	78 07       	cpc	r23, r24
    130e:	20 f4       	brcc	.+8      	; 0x1318 <Pwm__SetTCFrequency+0x60>
    1310:	84 e0       	ldi	r24, 0x04	; 4
    1312:	80 93 b1 00 	sts	0x00B1, r24	; 0x8000b1 <__TEXT_REGION_LENGTH__+0x7f80b1>
    1316:	08 95       	ret
    1318:	61 15       	cp	r22, r1
    131a:	80 e1       	ldi	r24, 0x10	; 16
    131c:	78 07       	cpc	r23, r24
    131e:	20 f4       	brcc	.+8      	; 0x1328 <Pwm__SetTCFrequency+0x70>
    1320:	83 e0       	ldi	r24, 0x03	; 3
    1322:	80 93 b1 00 	sts	0x00B1, r24	; 0x8000b1 <__TEXT_REGION_LENGTH__+0x7f80b1>
    1326:	08 95       	ret
    1328:	77 23       	and	r23, r23
    132a:	24 f0       	brlt	.+8      	; 0x1334 <Pwm__SetTCFrequency+0x7c>
    132c:	82 e0       	ldi	r24, 0x02	; 2
    132e:	80 93 b1 00 	sts	0x00B1, r24	; 0x8000b1 <__TEXT_REGION_LENGTH__+0x7f80b1>
    1332:	08 95       	ret
    1334:	81 e0       	ldi	r24, 0x01	; 1
    1336:	80 93 b1 00 	sts	0x00B1, r24	; 0x8000b1 <__TEXT_REGION_LENGTH__+0x7f80b1>
    133a:	08 95       	ret

0000133c <Pwm__SetDutyCycle>:
    133c:	65 36       	cpi	r22, 0x65	; 101
    133e:	08 f0       	brcs	.+2      	; 0x1342 <Pwm__SetDutyCycle+0x6>
    1340:	64 e6       	ldi	r22, 0x64	; 100
    1342:	82 30       	cpi	r24, 0x02	; 2
    1344:	01 f1       	breq	.+64     	; 0x1386 <Pwm__SetDutyCycle+0x4a>
    1346:	28 f4       	brcc	.+10     	; 0x1352 <Pwm__SetDutyCycle+0x16>
    1348:	88 23       	and	r24, r24
    134a:	49 f0       	breq	.+18     	; 0x135e <Pwm__SetDutyCycle+0x22>
    134c:	81 30       	cpi	r24, 0x01	; 1
    134e:	89 f0       	breq	.+34     	; 0x1372 <Pwm__SetDutyCycle+0x36>
    1350:	08 95       	ret
    1352:	84 30       	cpi	r24, 0x04	; 4
    1354:	71 f1       	breq	.+92     	; 0x13b2 <Pwm__SetDutyCycle+0x76>
    1356:	10 f1       	brcs	.+68     	; 0x139c <Pwm__SetDutyCycle+0x60>
    1358:	85 30       	cpi	r24, 0x05	; 5
    135a:	b1 f1       	breq	.+108    	; 0x13c8 <Pwm__SetDutyCycle+0x8c>
    135c:	08 95       	ret
    135e:	2f ef       	ldi	r18, 0xFF	; 255
    1360:	62 9f       	mul	r22, r18
    1362:	c0 01       	movw	r24, r0
    1364:	11 24       	eor	r1, r1
    1366:	64 e6       	ldi	r22, 0x64	; 100
    1368:	70 e0       	ldi	r23, 0x00	; 0
    136a:	0e 94 c4 10 	call	0x2188	; 0x2188 <__divmodhi4>
    136e:	67 bd       	out	0x27, r22	; 39
    1370:	08 95       	ret
    1372:	2f ef       	ldi	r18, 0xFF	; 255
    1374:	62 9f       	mul	r22, r18
    1376:	c0 01       	movw	r24, r0
    1378:	11 24       	eor	r1, r1
    137a:	64 e6       	ldi	r22, 0x64	; 100
    137c:	70 e0       	ldi	r23, 0x00	; 0
    137e:	0e 94 c4 10 	call	0x2188	; 0x2188 <__divmodhi4>
    1382:	68 bd       	out	0x28, r22	; 40
    1384:	08 95       	ret
    1386:	2f ef       	ldi	r18, 0xFF	; 255
    1388:	62 9f       	mul	r22, r18
    138a:	c0 01       	movw	r24, r0
    138c:	11 24       	eor	r1, r1
    138e:	64 e6       	ldi	r22, 0x64	; 100
    1390:	70 e0       	ldi	r23, 0x00	; 0
    1392:	0e 94 c4 10 	call	0x2188	; 0x2188 <__divmodhi4>
    1396:	60 93 89 00 	sts	0x0089, r22	; 0x800089 <__TEXT_REGION_LENGTH__+0x7f8089>
    139a:	08 95       	ret
    139c:	2f ef       	ldi	r18, 0xFF	; 255
    139e:	62 9f       	mul	r22, r18
    13a0:	c0 01       	movw	r24, r0
    13a2:	11 24       	eor	r1, r1
    13a4:	64 e6       	ldi	r22, 0x64	; 100
    13a6:	70 e0       	ldi	r23, 0x00	; 0
    13a8:	0e 94 c4 10 	call	0x2188	; 0x2188 <__divmodhi4>
    13ac:	60 93 8b 00 	sts	0x008B, r22	; 0x80008b <__TEXT_REGION_LENGTH__+0x7f808b>
    13b0:	08 95       	ret
    13b2:	2f ef       	ldi	r18, 0xFF	; 255
    13b4:	62 9f       	mul	r22, r18
    13b6:	c0 01       	movw	r24, r0
    13b8:	11 24       	eor	r1, r1
    13ba:	64 e6       	ldi	r22, 0x64	; 100
    13bc:	70 e0       	ldi	r23, 0x00	; 0
    13be:	0e 94 c4 10 	call	0x2188	; 0x2188 <__divmodhi4>
    13c2:	60 93 b3 00 	sts	0x00B3, r22	; 0x8000b3 <__TEXT_REGION_LENGTH__+0x7f80b3>
    13c6:	08 95       	ret
    13c8:	2f ef       	ldi	r18, 0xFF	; 255
    13ca:	62 9f       	mul	r22, r18
    13cc:	c0 01       	movw	r24, r0
    13ce:	11 24       	eor	r1, r1
    13d0:	64 e6       	ldi	r22, 0x64	; 100
    13d2:	70 e0       	ldi	r23, 0x00	; 0
    13d4:	0e 94 c4 10 	call	0x2188	; 0x2188 <__divmodhi4>
    13d8:	60 93 b4 00 	sts	0x00B4, r22	; 0x8000b4 <__TEXT_REGION_LENGTH__+0x7f80b4>
    13dc:	08 95       	ret

000013de <Pwm__Initialize>:
    13de:	8a b1       	in	r24, 0x0a	; 10
    13e0:	88 60       	ori	r24, 0x08	; 8
    13e2:	8a b9       	out	0x0a, r24	; 10
    13e4:	8a b1       	in	r24, 0x0a	; 10
    13e6:	80 64       	ori	r24, 0x40	; 64
    13e8:	8a b9       	out	0x0a, r24	; 10
    13ea:	8a b1       	in	r24, 0x0a	; 10
    13ec:	80 62       	ori	r24, 0x20	; 32
    13ee:	8a b9       	out	0x0a, r24	; 10
    13f0:	83 e3       	ldi	r24, 0x33	; 51
    13f2:	84 bd       	out	0x24, r24	; 36
    13f4:	88 e0       	ldi	r24, 0x08	; 8
    13f6:	85 bd       	out	0x25, r24	; 37
    13f8:	10 92 80 00 	sts	0x0080, r1	; 0x800080 <__TEXT_REGION_LENGTH__+0x7f8080>
    13fc:	81 e3       	ldi	r24, 0x31	; 49
    13fe:	80 93 b0 00 	sts	0x00B0, r24	; 0x8000b0 <__TEXT_REGION_LENGTH__+0x7f80b0>
    1402:	68 ee       	ldi	r22, 0xE8	; 232
    1404:	73 e0       	ldi	r23, 0x03	; 3
    1406:	82 e0       	ldi	r24, 0x02	; 2
    1408:	0e 94 5c 09 	call	0x12b8	; 0x12b8 <Pwm__SetTCFrequency>
    140c:	60 e0       	ldi	r22, 0x00	; 0
    140e:	85 e0       	ldi	r24, 0x05	; 5
    1410:	0e 94 9e 09 	call	0x133c	; 0x133c <Pwm__SetDutyCycle>
    1414:	08 95       	ret

00001416 <halLedInitialize>:
    1416:	41 e0       	ldi	r20, 0x01	; 1
    1418:	61 e0       	ldi	r22, 0x01	; 1
    141a:	82 e0       	ldi	r24, 0x02	; 2
    141c:	0e 94 32 09 	call	0x1264	; 0x1264 <gpioPinConfig>
    1420:	08 95       	ret

00001422 <sendZero>:
    1422:	8b b1       	in	r24, 0x0b	; 11
    1424:	82 60       	ori	r24, 0x02	; 2
    1426:	8b b9       	out	0x0b, r24	; 11
    1428:	00 00       	nop
    142a:	00 00       	nop
    142c:	8b b1       	in	r24, 0x0b	; 11
    142e:	8d 7f       	andi	r24, 0xFD	; 253
    1430:	8b b9       	out	0x0b, r24	; 11
	...
    143e:	00 00       	nop
    1440:	08 95       	ret

00001442 <sendOne>:
    1442:	8b b1       	in	r24, 0x0b	; 11
    1444:	82 60       	ori	r24, 0x02	; 2
    1446:	8b b9       	out	0x0b, r24	; 11
	...
    1454:	8b b1       	in	r24, 0x0b	; 11
    1456:	8d 7f       	andi	r24, 0xFD	; 253
    1458:	8b b9       	out	0x0b, r24	; 11
    145a:	00 00       	nop
    145c:	00 00       	nop
    145e:	08 95       	ret

00001460 <sendDataToDisplay>:
    1460:	0f 93       	push	r16
    1462:	1f 93       	push	r17
    1464:	cf 93       	push	r28
    1466:	df 93       	push	r29
    1468:	ec 01       	movw	r28, r24
    146a:	f8 94       	cli
    146c:	00 ec       	ldi	r16, 0xC0	; 192
    146e:	1d c0       	rjmp	.+58     	; 0x14aa <sendDataToDisplay+0x4a>
    1470:	88 81       	ld	r24, Y
    1472:	21 2f       	mov	r18, r17
    1474:	30 e0       	ldi	r19, 0x00	; 0
    1476:	21 50       	subi	r18, 0x01	; 1
    1478:	31 09       	sbc	r19, r1
    147a:	90 e0       	ldi	r25, 0x00	; 0
    147c:	a0 e0       	ldi	r26, 0x00	; 0
    147e:	b0 e0       	ldi	r27, 0x00	; 0
    1480:	04 c0       	rjmp	.+8      	; 0x148a <sendDataToDisplay+0x2a>
    1482:	b6 95       	lsr	r27
    1484:	a7 95       	ror	r26
    1486:	97 95       	ror	r25
    1488:	87 95       	ror	r24
    148a:	2a 95       	dec	r18
    148c:	d2 f7       	brpl	.-12     	; 0x1482 <sendDataToDisplay+0x22>
    148e:	80 ff       	sbrs	r24, 0
    1490:	03 c0       	rjmp	.+6      	; 0x1498 <sendDataToDisplay+0x38>
    1492:	0e 94 21 0a 	call	0x1442	; 0x1442 <sendOne>
    1496:	02 c0       	rjmp	.+4      	; 0x149c <sendDataToDisplay+0x3c>
    1498:	0e 94 11 0a 	call	0x1422	; 0x1422 <sendZero>
    149c:	11 50       	subi	r17, 0x01	; 1
    149e:	01 c0       	rjmp	.+2      	; 0x14a2 <sendDataToDisplay+0x42>
    14a0:	18 e0       	ldi	r17, 0x08	; 8
    14a2:	11 11       	cpse	r17, r1
    14a4:	e5 cf       	rjmp	.-54     	; 0x1470 <sendDataToDisplay+0x10>
    14a6:	01 50       	subi	r16, 0x01	; 1
    14a8:	21 97       	sbiw	r28, 0x01	; 1
    14aa:	01 11       	cpse	r16, r1
    14ac:	f9 cf       	rjmp	.-14     	; 0x14a0 <sendDataToDisplay+0x40>
    14ae:	78 94       	sei
    14b0:	df 91       	pop	r29
    14b2:	cf 91       	pop	r28
    14b4:	1f 91       	pop	r17
    14b6:	0f 91       	pop	r16
    14b8:	08 95       	ret

000014ba <halKeyBoardInitialize>:
    14ba:	60 e0       	ldi	r22, 0x00	; 0
    14bc:	81 e0       	ldi	r24, 0x01	; 1
    14be:	0e 94 fa 08 	call	0x11f4	; 0x11f4 <ADC__ConfigModes>
    14c2:	10 92 17 03 	sts	0x0317, r1	; 0x800317 <AD_Mux_State>
    14c6:	85 e0       	ldi	r24, 0x05	; 5
    14c8:	80 93 fe 02 	sts	0x02FE, r24	; 0x8002fe <AD_Channel>
    14cc:	80 e0       	ldi	r24, 0x00	; 0
    14ce:	1a c0       	rjmp	.+52     	; 0x1504 <halKeyBoardInitialize+0x4a>
    14d0:	28 2f       	mov	r18, r24
    14d2:	30 e0       	ldi	r19, 0x00	; 0
    14d4:	f9 01       	movw	r30, r18
    14d6:	ee 59       	subi	r30, 0x9E	; 158
    14d8:	fe 4f       	sbci	r31, 0xFE	; 254
    14da:	90 81       	ld	r25, Z
    14dc:	91 30       	cpi	r25, 0x01	; 1
    14de:	89 f4       	brne	.+34     	; 0x1502 <halKeyBoardInitialize+0x48>
    14e0:	a9 01       	movw	r20, r18
    14e2:	44 0f       	add	r20, r20
    14e4:	55 1f       	adc	r21, r21
    14e6:	fa 01       	movw	r30, r20
    14e8:	e5 5f       	subi	r30, 0xF5	; 245
    14ea:	fc 4f       	sbci	r31, 0xFC	; 252
    14ec:	11 82       	std	Z+1, r1	; 0x01
    14ee:	10 82       	st	Z, r1
    14f0:	fa 01       	movw	r30, r20
    14f2:	e2 5e       	subi	r30, 0xE2	; 226
    14f4:	fc 4f       	sbci	r31, 0xFC	; 252
    14f6:	11 82       	std	Z+1, r1	; 0x01
    14f8:	10 82       	st	Z, r1
    14fa:	f9 01       	movw	r30, r18
    14fc:	e8 5e       	subi	r30, 0xE8	; 232
    14fe:	fc 4f       	sbci	r31, 0xFC	; 252
    1500:	10 82       	st	Z, r1
    1502:	8f 5f       	subi	r24, 0xFF	; 255
    1504:	86 30       	cpi	r24, 0x06	; 6
    1506:	20 f3       	brcs	.-56     	; 0x14d0 <halKeyBoardInitialize+0x16>
    1508:	08 95       	ret

0000150a <ADProcess>:
    150a:	cf 93       	push	r28
    150c:	df 93       	push	r29
    150e:	80 91 17 03 	lds	r24, 0x0317	; 0x800317 <AD_Mux_State>
    1512:	81 30       	cpi	r24, 0x01	; 1
    1514:	19 f0       	breq	.+6      	; 0x151c <ADProcess+0x12>
    1516:	83 30       	cpi	r24, 0x03	; 3
    1518:	31 f0       	breq	.+12     	; 0x1526 <ADProcess+0x1c>
    151a:	5a c0       	rjmp	.+180    	; 0x15d0 <ADProcess+0xc6>
    151c:	60 e0       	ldi	r22, 0x00	; 0
    151e:	81 e0       	ldi	r24, 0x01	; 1
    1520:	0e 94 fa 08 	call	0x11f4	; 0x11f4 <ADC__ConfigModes>
    1524:	55 c0       	rjmp	.+170    	; 0x15d0 <ADProcess+0xc6>
    1526:	c0 91 fe 02 	lds	r28, 0x02FE	; 0x8002fe <AD_Channel>
    152a:	d0 e0       	ldi	r29, 0x00	; 0
    152c:	fe 01       	movw	r30, r28
    152e:	ee 59       	subi	r30, 0x9E	; 158
    1530:	fe 4f       	sbci	r31, 0xFE	; 254
    1532:	80 81       	ld	r24, Z
    1534:	81 30       	cpi	r24, 0x01	; 1
    1536:	09 f0       	breq	.+2      	; 0x153a <ADProcess+0x30>
    1538:	42 c0       	rjmp	.+132    	; 0x15be <ADProcess+0xb4>
    153a:	fe 01       	movw	r30, r28
    153c:	e8 5e       	subi	r30, 0xE8	; 232
    153e:	fc 4f       	sbci	r31, 0xFC	; 252
    1540:	80 81       	ld	r24, Z
    1542:	84 30       	cpi	r24, 0x04	; 4
    1544:	30 f5       	brcc	.+76     	; 0x1592 <ADProcess+0x88>
    1546:	fe 01       	movw	r30, r28
    1548:	e4 5a       	subi	r30, 0xA4	; 164
    154a:	fe 4f       	sbci	r31, 0xFE	; 254
    154c:	80 81       	ld	r24, Z
    154e:	0e 94 24 09 	call	0x1248	; 0x1248 <ADC__GetValue>
    1552:	cc 0f       	add	r28, r28
    1554:	dd 1f       	adc	r29, r29
    1556:	c1 50       	subi	r28, 0x01	; 1
    1558:	dd 4f       	sbci	r29, 0xFD	; 253
    155a:	99 83       	std	Y+1, r25	; 0x01
    155c:	88 83       	st	Y, r24
    155e:	e0 91 fe 02 	lds	r30, 0x02FE	; 0x8002fe <AD_Channel>
    1562:	f0 e0       	ldi	r31, 0x00	; 0
    1564:	df 01       	movw	r26, r30
    1566:	aa 0f       	add	r26, r26
    1568:	bb 1f       	adc	r27, r27
    156a:	ed 01       	movw	r28, r26
    156c:	c1 50       	subi	r28, 0x01	; 1
    156e:	dd 4f       	sbci	r29, 0xFD	; 253
    1570:	88 81       	ld	r24, Y
    1572:	99 81       	ldd	r25, Y+1	; 0x01
    1574:	a2 5e       	subi	r26, 0xE2	; 226
    1576:	bc 4f       	sbci	r27, 0xFC	; 252
    1578:	2d 91       	ld	r18, X+
    157a:	3c 91       	ld	r19, X
    157c:	11 97       	sbiw	r26, 0x01	; 1
    157e:	82 0f       	add	r24, r18
    1580:	93 1f       	adc	r25, r19
    1582:	8d 93       	st	X+, r24
    1584:	9c 93       	st	X, r25
    1586:	e8 5e       	subi	r30, 0xE8	; 232
    1588:	fc 4f       	sbci	r31, 0xFC	; 252
    158a:	80 81       	ld	r24, Z
    158c:	8f 5f       	subi	r24, 0xFF	; 255
    158e:	80 83       	st	Z, r24
    1590:	16 c0       	rjmp	.+44     	; 0x15be <ADProcess+0xb4>
    1592:	ce 01       	movw	r24, r28
    1594:	88 0f       	add	r24, r24
    1596:	99 1f       	adc	r25, r25
    1598:	fc 01       	movw	r30, r24
    159a:	e2 5e       	subi	r30, 0xE2	; 226
    159c:	fc 4f       	sbci	r31, 0xFC	; 252
    159e:	20 81       	ld	r18, Z
    15a0:	31 81       	ldd	r19, Z+1	; 0x01
    15a2:	36 95       	lsr	r19
    15a4:	27 95       	ror	r18
    15a6:	36 95       	lsr	r19
    15a8:	27 95       	ror	r18
    15aa:	dc 01       	movw	r26, r24
    15ac:	a5 5f       	subi	r26, 0xF5	; 245
    15ae:	bc 4f       	sbci	r27, 0xFC	; 252
    15b0:	2d 93       	st	X+, r18
    15b2:	3c 93       	st	X, r19
    15b4:	11 82       	std	Z+1, r1	; 0x01
    15b6:	10 82       	st	Z, r1
    15b8:	c8 5e       	subi	r28, 0xE8	; 232
    15ba:	dc 4f       	sbci	r29, 0xFC	; 252
    15bc:	18 82       	st	Y, r1
    15be:	80 91 fe 02 	lds	r24, 0x02FE	; 0x8002fe <AD_Channel>
    15c2:	8f 5f       	subi	r24, 0xFF	; 255
    15c4:	80 93 fe 02 	sts	0x02FE, r24	; 0x8002fe <AD_Channel>
    15c8:	86 30       	cpi	r24, 0x06	; 6
    15ca:	10 f0       	brcs	.+4      	; 0x15d0 <ADProcess+0xc6>
    15cc:	10 92 fe 02 	sts	0x02FE, r1	; 0x8002fe <AD_Channel>
    15d0:	80 91 17 03 	lds	r24, 0x0317	; 0x800317 <AD_Mux_State>
    15d4:	8f 5f       	subi	r24, 0xFF	; 255
    15d6:	80 93 17 03 	sts	0x0317, r24	; 0x800317 <AD_Mux_State>
    15da:	84 30       	cpi	r24, 0x04	; 4
    15dc:	18 f0       	brcs	.+6      	; 0x15e4 <ADProcess+0xda>
    15de:	81 e0       	ldi	r24, 0x01	; 1
    15e0:	80 93 17 03 	sts	0x0317, r24	; 0x800317 <AD_Mux_State>
    15e4:	df 91       	pop	r29
    15e6:	cf 91       	pop	r28
    15e8:	08 95       	ret

000015ea <halKeyboardBackgroundHandler>:
    15ea:	0e 94 85 0a 	call	0x150a	; 0x150a <ADProcess>
    15ee:	08 95       	ret

000015f0 <Hal_GetAnalogInput>:
    15f0:	86 30       	cpi	r24, 0x06	; 6
    15f2:	48 f4       	brcc	.+18     	; 0x1606 <Hal_GetAnalogInput+0x16>
    15f4:	e8 2f       	mov	r30, r24
    15f6:	f0 e0       	ldi	r31, 0x00	; 0
    15f8:	ee 0f       	add	r30, r30
    15fa:	ff 1f       	adc	r31, r31
    15fc:	e5 5f       	subi	r30, 0xF5	; 245
    15fe:	fc 4f       	sbci	r31, 0xFC	; 252
    1600:	80 81       	ld	r24, Z
    1602:	91 81       	ldd	r25, Z+1	; 0x01
    1604:	08 95       	ret
    1606:	80 e0       	ldi	r24, 0x00	; 0
    1608:	90 e0       	ldi	r25, 0x00	; 0
    160a:	08 95       	ret

0000160c <Hal__SetBuzzer>:
    160c:	88 23       	and	r24, r24
    160e:	29 f0       	breq	.+10     	; 0x161a <Hal__SetBuzzer+0xe>
    1610:	62 e3       	ldi	r22, 0x32	; 50
    1612:	85 e0       	ldi	r24, 0x05	; 5
    1614:	0e 94 9e 09 	call	0x133c	; 0x133c <Pwm__SetDutyCycle>
    1618:	08 95       	ret
    161a:	60 e0       	ldi	r22, 0x00	; 0
    161c:	85 e0       	ldi	r24, 0x05	; 5
    161e:	0e 94 9e 09 	call	0x133c	; 0x133c <Pwm__SetDutyCycle>
    1622:	08 95       	ret

00001624 <halSetBuzzerFreq>:
    1624:	bc 01       	movw	r22, r24
    1626:	82 e0       	ldi	r24, 0x02	; 2
    1628:	0e 94 5c 09 	call	0x12b8	; 0x12b8 <Pwm__SetTCFrequency>
    162c:	08 95       	ret

0000162e <halSoundInitialize>:
    162e:	10 92 2a 03 	sts	0x032A, r1	; 0x80032a <timerTopValue>
    1632:	10 92 2b 03 	sts	0x032B, r1	; 0x80032b <timerPrescaler>
    1636:	ee e6       	ldi	r30, 0x6E	; 110
    1638:	f0 e0       	ldi	r31, 0x00	; 0
    163a:	80 81       	ld	r24, Z
    163c:	82 60       	ori	r24, 0x02	; 2
    163e:	80 83       	st	Z, r24
    1640:	8a b1       	in	r24, 0x0a	; 10
    1642:	80 62       	ori	r24, 0x20	; 32
    1644:	8a b9       	out	0x0a, r24	; 10
    1646:	8b b1       	in	r24, 0x0b	; 11
    1648:	1b b8       	out	0x0b, r1	; 11
    164a:	08 95       	ret

0000164c <displayGetAnimationStatus>:
    164c:	80 91 2e 03 	lds	r24, 0x032E	; 0x80032e <animationStep>
    1650:	81 11       	cpse	r24, r1
    1652:	02 c0       	rjmp	.+4      	; 0x1658 <displayGetAnimationStatus+0xc>
    1654:	81 e0       	ldi	r24, 0x01	; 1
    1656:	08 95       	ret
    1658:	80 e0       	ldi	r24, 0x00	; 0
    165a:	08 95       	ret

0000165c <displaySetAnimation>:
    165c:	90 91 2e 03 	lds	r25, 0x032E	; 0x80032e <animationStep>
    1660:	91 11       	cpse	r25, r1
    1662:	11 c0       	rjmp	.+34     	; 0x1686 <displaySetAnimation+0x2a>
    1664:	81 11       	cpse	r24, r1
    1666:	03 c0       	rjmp	.+6      	; 0x166e <displaySetAnimation+0x12>
    1668:	10 92 f1 03 	sts	0x03F1, r1	; 0x8003f1 <diplayCor>
    166c:	09 c0       	rjmp	.+18     	; 0x1680 <displaySetAnimation+0x24>
    166e:	81 30       	cpi	r24, 0x01	; 1
    1670:	19 f4       	brne	.+6      	; 0x1678 <displaySetAnimation+0x1c>
    1672:	80 93 f1 03 	sts	0x03F1, r24	; 0x8003f1 <diplayCor>
    1676:	04 c0       	rjmp	.+8      	; 0x1680 <displaySetAnimation+0x24>
    1678:	82 30       	cpi	r24, 0x02	; 2
    167a:	11 f4       	brne	.+4      	; 0x1680 <displaySetAnimation+0x24>
    167c:	80 93 f1 03 	sts	0x03F1, r24	; 0x8003f1 <diplayCor>
    1680:	81 e0       	ldi	r24, 0x01	; 1
    1682:	80 93 2e 03 	sts	0x032E, r24	; 0x80032e <animationStep>
    1686:	08 95       	ret

00001688 <displayBackgroundHandler>:
    1688:	80 91 30 03 	lds	r24, 0x0330	; 0x800330 <updateFlag>
    168c:	88 23       	and	r24, r24
    168e:	31 f0       	breq	.+12     	; 0x169c <displayBackgroundHandler+0x14>
    1690:	80 ef       	ldi	r24, 0xF0	; 240
    1692:	93 e0       	ldi	r25, 0x03	; 3
    1694:	0e 94 30 0a 	call	0x1460	; 0x1460 <sendDataToDisplay>
    1698:	10 92 30 03 	sts	0x0330, r1	; 0x800330 <updateFlag>
    169c:	08 95       	ret

0000169e <getTictactoePositionValue>:
    169e:	28 2f       	mov	r18, r24
    16a0:	30 e0       	ldi	r19, 0x00	; 0
    16a2:	70 e0       	ldi	r23, 0x00	; 0
    16a4:	fb 01       	movw	r30, r22
    16a6:	ee 0f       	add	r30, r30
    16a8:	ff 1f       	adc	r31, r31
    16aa:	e6 0f       	add	r30, r22
    16ac:	f7 1f       	adc	r31, r23
    16ae:	b9 01       	movw	r22, r18
    16b0:	66 0f       	add	r22, r22
    16b2:	77 1f       	adc	r23, r23
    16b4:	db 01       	movw	r26, r22
    16b6:	a2 0f       	add	r26, r18
    16b8:	b3 1f       	adc	r27, r19
    16ba:	aa 0f       	add	r26, r26
    16bc:	bb 1f       	adc	r27, r27
    16be:	aa 0f       	add	r26, r26
    16c0:	bb 1f       	adc	r27, r27
    16c2:	aa 0f       	add	r26, r26
    16c4:	bb 1f       	adc	r27, r27
    16c6:	ae 0f       	add	r26, r30
    16c8:	bf 1f       	adc	r27, r31
    16ca:	af 5c       	subi	r26, 0xCF	; 207
    16cc:	bc 4f       	sbci	r27, 0xFC	; 252
    16ce:	12 96       	adiw	r26, 0x02	; 2
    16d0:	4c 91       	ld	r20, X
    16d2:	12 97       	sbiw	r26, 0x02	; 2
    16d4:	11 96       	adiw	r26, 0x01	; 1
    16d6:	8c 91       	ld	r24, X
    16d8:	11 97       	sbiw	r26, 0x01	; 1
    16da:	90 e0       	ldi	r25, 0x00	; 0
    16dc:	84 0f       	add	r24, r20
    16de:	91 1d       	adc	r25, r1
    16e0:	fd 01       	movw	r30, r26
    16e2:	20 81       	ld	r18, Z
    16e4:	82 0f       	add	r24, r18
    16e6:	91 1d       	adc	r25, r1
    16e8:	08 95       	ret

000016ea <changeIndividual>:
    16ea:	e8 e0       	ldi	r30, 0x08	; 8
    16ec:	f0 e0       	ldi	r31, 0x00	; 0
    16ee:	df 01       	movw	r26, r30
    16f0:	a8 1b       	sub	r26, r24
    16f2:	b1 09       	sbc	r27, r1
    16f4:	cd 01       	movw	r24, r26
    16f6:	e6 1b       	sub	r30, r22
    16f8:	f1 09       	sbc	r31, r1
    16fa:	bf 01       	movw	r22, r30
    16fc:	66 0f       	add	r22, r22
    16fe:	77 1f       	adc	r23, r23
    1700:	e6 0f       	add	r30, r22
    1702:	f7 1f       	adc	r31, r23
    1704:	bd 01       	movw	r22, r26
    1706:	66 0f       	add	r22, r22
    1708:	77 1f       	adc	r23, r23
    170a:	86 0f       	add	r24, r22
    170c:	97 1f       	adc	r25, r23
    170e:	88 0f       	add	r24, r24
    1710:	99 1f       	adc	r25, r25
    1712:	88 0f       	add	r24, r24
    1714:	99 1f       	adc	r25, r25
    1716:	88 0f       	add	r24, r24
    1718:	99 1f       	adc	r25, r25
    171a:	e8 0f       	add	r30, r24
    171c:	f9 1f       	adc	r31, r25
    171e:	ef 5c       	subi	r30, 0xCF	; 207
    1720:	fc 4f       	sbci	r31, 0xFC	; 252
    1722:	e4 0f       	add	r30, r20
    1724:	f1 1d       	adc	r31, r1
    1726:	20 83       	st	Z, r18
    1728:	81 e0       	ldi	r24, 0x01	; 1
    172a:	80 93 30 03 	sts	0x0330, r24	; 0x800330 <updateFlag>
    172e:	08 95       	ret

00001730 <changeHouse>:
    1730:	cf 92       	push	r12
    1732:	df 92       	push	r13
    1734:	ef 92       	push	r14
    1736:	ff 92       	push	r15
    1738:	0f 93       	push	r16
    173a:	1f 93       	push	r17
    173c:	cf 93       	push	r28
    173e:	df 93       	push	r29
    1740:	90 e0       	ldi	r25, 0x00	; 0
    1742:	70 e0       	ldi	r23, 0x00	; 0
    1744:	50 e0       	ldi	r21, 0x00	; 0
    1746:	8b 01       	movw	r16, r22
    1748:	00 0f       	add	r16, r16
    174a:	11 1f       	adc	r17, r17
    174c:	78 01       	movw	r14, r16
    174e:	e6 0e       	add	r14, r22
    1750:	f7 1e       	adc	r15, r23
    1752:	6c 01       	movw	r12, r24
    1754:	cc 0c       	add	r12, r12
    1756:	dd 1c       	adc	r13, r13
    1758:	d6 01       	movw	r26, r12
    175a:	a8 0f       	add	r26, r24
    175c:	b9 1f       	adc	r27, r25
    175e:	aa 0f       	add	r26, r26
    1760:	bb 1f       	adc	r27, r27
    1762:	aa 0f       	add	r26, r26
    1764:	bb 1f       	adc	r27, r27
    1766:	aa 0f       	add	r26, r26
    1768:	bb 1f       	adc	r27, r27
    176a:	ae 0d       	add	r26, r14
    176c:	bf 1d       	adc	r27, r15
    176e:	af 5c       	subi	r26, 0xCF	; 207
    1770:	bc 4f       	sbci	r27, 0xFC	; 252
    1772:	a4 0f       	add	r26, r20
    1774:	b5 1f       	adc	r27, r21
    1776:	2c 93       	st	X, r18
    1778:	dc 01       	movw	r26, r24
    177a:	11 96       	adiw	r26, 0x01	; 1
    177c:	ed 01       	movw	r28, r26
    177e:	cc 0f       	add	r28, r28
    1780:	dd 1f       	adc	r29, r29
    1782:	8e 01       	movw	r16, r28
    1784:	0a 0f       	add	r16, r26
    1786:	1b 1f       	adc	r17, r27
    1788:	00 0f       	add	r16, r16
    178a:	11 1f       	adc	r17, r17
    178c:	00 0f       	add	r16, r16
    178e:	11 1f       	adc	r17, r17
    1790:	00 0f       	add	r16, r16
    1792:	11 1f       	adc	r17, r17
    1794:	0e 0d       	add	r16, r14
    1796:	1f 1d       	adc	r17, r15
    1798:	0f 5c       	subi	r16, 0xCF	; 207
    179a:	1c 4f       	sbci	r17, 0xFC	; 252
    179c:	04 0f       	add	r16, r20
    179e:	15 1f       	adc	r17, r21
    17a0:	f8 01       	movw	r30, r16
    17a2:	20 83       	st	Z, r18
    17a4:	6f 5f       	subi	r22, 0xFF	; 255
    17a6:	7f 4f       	sbci	r23, 0xFF	; 255
    17a8:	8b 01       	movw	r16, r22
    17aa:	00 0f       	add	r16, r16
    17ac:	11 1f       	adc	r17, r17
    17ae:	60 0f       	add	r22, r16
    17b0:	71 1f       	adc	r23, r17
    17b2:	f6 01       	movw	r30, r12
    17b4:	e8 0f       	add	r30, r24
    17b6:	f9 1f       	adc	r31, r25
    17b8:	ee 0f       	add	r30, r30
    17ba:	ff 1f       	adc	r31, r31
    17bc:	ee 0f       	add	r30, r30
    17be:	ff 1f       	adc	r31, r31
    17c0:	ee 0f       	add	r30, r30
    17c2:	ff 1f       	adc	r31, r31
    17c4:	e6 0f       	add	r30, r22
    17c6:	f7 1f       	adc	r31, r23
    17c8:	ef 5c       	subi	r30, 0xCF	; 207
    17ca:	fc 4f       	sbci	r31, 0xFC	; 252
    17cc:	e4 0f       	add	r30, r20
    17ce:	f5 1f       	adc	r31, r21
    17d0:	20 83       	st	Z, r18
    17d2:	ac 0f       	add	r26, r28
    17d4:	bd 1f       	adc	r27, r29
    17d6:	aa 0f       	add	r26, r26
    17d8:	bb 1f       	adc	r27, r27
    17da:	aa 0f       	add	r26, r26
    17dc:	bb 1f       	adc	r27, r27
    17de:	aa 0f       	add	r26, r26
    17e0:	bb 1f       	adc	r27, r27
    17e2:	a6 0f       	add	r26, r22
    17e4:	b7 1f       	adc	r27, r23
    17e6:	af 5c       	subi	r26, 0xCF	; 207
    17e8:	bc 4f       	sbci	r27, 0xFC	; 252
    17ea:	a4 0f       	add	r26, r20
    17ec:	b5 1f       	adc	r27, r21
    17ee:	2c 93       	st	X, r18
    17f0:	81 e0       	ldi	r24, 0x01	; 1
    17f2:	80 93 30 03 	sts	0x0330, r24	; 0x800330 <updateFlag>
    17f6:	df 91       	pop	r29
    17f8:	cf 91       	pop	r28
    17fa:	1f 91       	pop	r17
    17fc:	0f 91       	pop	r16
    17fe:	ff 90       	pop	r15
    1800:	ef 90       	pop	r14
    1802:	df 90       	pop	r13
    1804:	cf 90       	pop	r12
    1806:	08 95       	ret

00001808 <setAll>:
    1808:	90 e0       	ldi	r25, 0x00	; 0
    180a:	8f 5c       	subi	r24, 0xCF	; 207
    180c:	9c 4f       	sbci	r25, 0xFC	; 252
    180e:	90 93 2d 03 	sts	0x032D, r25	; 0x80032d <ptMatrix+0x1>
    1812:	80 93 2c 03 	sts	0x032C, r24	; 0x80032c <ptMatrix>
    1816:	20 e4       	ldi	r18, 0x40	; 64
    1818:	0f c0       	rjmp	.+30     	; 0x1838 <setAll+0x30>
    181a:	e0 91 2c 03 	lds	r30, 0x032C	; 0x80032c <ptMatrix>
    181e:	f0 91 2d 03 	lds	r31, 0x032D	; 0x80032d <ptMatrix+0x1>
    1822:	60 83       	st	Z, r22
    1824:	21 50       	subi	r18, 0x01	; 1
    1826:	80 91 2c 03 	lds	r24, 0x032C	; 0x80032c <ptMatrix>
    182a:	90 91 2d 03 	lds	r25, 0x032D	; 0x80032d <ptMatrix+0x1>
    182e:	03 96       	adiw	r24, 0x03	; 3
    1830:	90 93 2d 03 	sts	0x032D, r25	; 0x80032d <ptMatrix+0x1>
    1834:	80 93 2c 03 	sts	0x032C, r24	; 0x80032c <ptMatrix>
    1838:	21 11       	cpse	r18, r1
    183a:	ef cf       	rjmp	.-34     	; 0x181a <setAll+0x12>
    183c:	81 e0       	ldi	r24, 0x01	; 1
    183e:	80 93 30 03 	sts	0x0330, r24	; 0x800330 <updateFlag>
    1842:	08 95       	ret

00001844 <setDisplay>:
    1844:	0e 94 04 0c 	call	0x1808	; 0x1808 <setAll>
    1848:	08 95       	ret

0000184a <clearAll>:
    184a:	81 e3       	ldi	r24, 0x31	; 49
    184c:	93 e0       	ldi	r25, 0x03	; 3
    184e:	90 93 2d 03 	sts	0x032D, r25	; 0x80032d <ptMatrix+0x1>
    1852:	80 93 2c 03 	sts	0x032C, r24	; 0x80032c <ptMatrix>
    1856:	20 e0       	ldi	r18, 0x00	; 0
    1858:	0f c0       	rjmp	.+30     	; 0x1878 <clearAll+0x2e>
    185a:	e0 91 2c 03 	lds	r30, 0x032C	; 0x80032c <ptMatrix>
    185e:	f0 91 2d 03 	lds	r31, 0x032D	; 0x80032d <ptMatrix+0x1>
    1862:	10 82       	st	Z, r1
    1864:	2f 5f       	subi	r18, 0xFF	; 255
    1866:	80 91 2c 03 	lds	r24, 0x032C	; 0x80032c <ptMatrix>
    186a:	90 91 2d 03 	lds	r25, 0x032D	; 0x80032d <ptMatrix+0x1>
    186e:	01 96       	adiw	r24, 0x01	; 1
    1870:	90 93 2d 03 	sts	0x032D, r25	; 0x80032d <ptMatrix+0x1>
    1874:	80 93 2c 03 	sts	0x032C, r24	; 0x80032c <ptMatrix>
    1878:	20 3c       	cpi	r18, 0xC0	; 192
    187a:	78 f3       	brcs	.-34     	; 0x185a <clearAll+0x10>
    187c:	81 e0       	ldi	r24, 0x01	; 1
    187e:	80 93 30 03 	sts	0x0330, r24	; 0x800330 <updateFlag>
    1882:	08 95       	ret

00001884 <ledInitialize>:
    1884:	0e 94 25 0c 	call	0x184a	; 0x184a <clearAll>
    1888:	0e 94 0b 0a 	call	0x1416	; 0x1416 <halLedInitialize>
    188c:	10 92 2f 03 	sts	0x032F, r1	; 0x80032f <tictactoeAnimation>
    1890:	08 95       	ret

00001892 <clearDisplay>:
    1892:	0e 94 25 0c 	call	0x184a	; 0x184a <clearAll>
    1896:	08 95       	ret

00001898 <displayAnimation>:
    1898:	81 e0       	ldi	r24, 0x01	; 1
    189a:	0e 94 a0 10 	call	0x2140	; 0x2140 <Timer__MsGetStatus>
    189e:	81 11       	cpse	r24, r1
    18a0:	4f c0       	rjmp	.+158    	; 0x1940 <displayAnimation+0xa8>
    18a2:	80 91 2e 03 	lds	r24, 0x032E	; 0x80032e <animationStep>
    18a6:	83 30       	cpi	r24, 0x03	; 3
    18a8:	09 f1       	breq	.+66     	; 0x18ec <displayAnimation+0x54>
    18aa:	28 f4       	brcc	.+10     	; 0x18b6 <displayAnimation+0x1e>
    18ac:	81 30       	cpi	r24, 0x01	; 1
    18ae:	49 f0       	breq	.+18     	; 0x18c2 <displayAnimation+0x2a>
    18b0:	82 30       	cpi	r24, 0x02	; 2
    18b2:	a1 f0       	breq	.+40     	; 0x18dc <displayAnimation+0x44>
    18b4:	40 c0       	rjmp	.+128    	; 0x1936 <displayAnimation+0x9e>
    18b6:	85 30       	cpi	r24, 0x05	; 5
    18b8:	61 f1       	breq	.+88     	; 0x1912 <displayAnimation+0x7a>
    18ba:	18 f1       	brcs	.+70     	; 0x1902 <displayAnimation+0x6a>
    18bc:	86 30       	cpi	r24, 0x06	; 6
    18be:	a1 f1       	breq	.+104    	; 0x1928 <displayAnimation+0x90>
    18c0:	3a c0       	rjmp	.+116    	; 0x1936 <displayAnimation+0x9e>
    18c2:	0e 94 49 0c 	call	0x1892	; 0x1892 <clearDisplay>
    18c6:	64 ef       	ldi	r22, 0xF4	; 244
    18c8:	71 e0       	ldi	r23, 0x01	; 1
    18ca:	81 e0       	ldi	r24, 0x01	; 1
    18cc:	0e 94 73 10 	call	0x20e6	; 0x20e6 <Timer__MsSet>
    18d0:	6f e1       	ldi	r22, 0x1F	; 31
    18d2:	80 91 f1 03 	lds	r24, 0x03F1	; 0x8003f1 <diplayCor>
    18d6:	0e 94 22 0c 	call	0x1844	; 0x1844 <setDisplay>
    18da:	2d c0       	rjmp	.+90     	; 0x1936 <displayAnimation+0x9e>
    18dc:	64 ef       	ldi	r22, 0xF4	; 244
    18de:	71 e0       	ldi	r23, 0x01	; 1
    18e0:	81 e0       	ldi	r24, 0x01	; 1
    18e2:	0e 94 73 10 	call	0x20e6	; 0x20e6 <Timer__MsSet>
    18e6:	0e 94 49 0c 	call	0x1892	; 0x1892 <clearDisplay>
    18ea:	25 c0       	rjmp	.+74     	; 0x1936 <displayAnimation+0x9e>
    18ec:	64 ef       	ldi	r22, 0xF4	; 244
    18ee:	71 e0       	ldi	r23, 0x01	; 1
    18f0:	81 e0       	ldi	r24, 0x01	; 1
    18f2:	0e 94 73 10 	call	0x20e6	; 0x20e6 <Timer__MsSet>
    18f6:	6f e1       	ldi	r22, 0x1F	; 31
    18f8:	80 91 f1 03 	lds	r24, 0x03F1	; 0x8003f1 <diplayCor>
    18fc:	0e 94 22 0c 	call	0x1844	; 0x1844 <setDisplay>
    1900:	1a c0       	rjmp	.+52     	; 0x1936 <displayAnimation+0x9e>
    1902:	64 ef       	ldi	r22, 0xF4	; 244
    1904:	71 e0       	ldi	r23, 0x01	; 1
    1906:	81 e0       	ldi	r24, 0x01	; 1
    1908:	0e 94 73 10 	call	0x20e6	; 0x20e6 <Timer__MsSet>
    190c:	0e 94 49 0c 	call	0x1892	; 0x1892 <clearDisplay>
    1910:	12 c0       	rjmp	.+36     	; 0x1936 <displayAnimation+0x9e>
    1912:	64 ef       	ldi	r22, 0xF4	; 244
    1914:	71 e0       	ldi	r23, 0x01	; 1
    1916:	81 e0       	ldi	r24, 0x01	; 1
    1918:	0e 94 73 10 	call	0x20e6	; 0x20e6 <Timer__MsSet>
    191c:	6f e1       	ldi	r22, 0x1F	; 31
    191e:	80 91 f1 03 	lds	r24, 0x03F1	; 0x8003f1 <diplayCor>
    1922:	0e 94 22 0c 	call	0x1844	; 0x1844 <setDisplay>
    1926:	07 c0       	rjmp	.+14     	; 0x1936 <displayAnimation+0x9e>
    1928:	64 ef       	ldi	r22, 0xF4	; 244
    192a:	71 e0       	ldi	r23, 0x01	; 1
    192c:	81 e0       	ldi	r24, 0x01	; 1
    192e:	0e 94 73 10 	call	0x20e6	; 0x20e6 <Timer__MsSet>
    1932:	0e 94 49 0c 	call	0x1892	; 0x1892 <clearDisplay>
    1936:	80 91 2e 03 	lds	r24, 0x032E	; 0x80032e <animationStep>
    193a:	8f 5f       	subi	r24, 0xFF	; 255
    193c:	80 93 2e 03 	sts	0x032E, r24	; 0x80032e <animationStep>
    1940:	80 91 2e 03 	lds	r24, 0x032E	; 0x80032e <animationStep>
    1944:	87 30       	cpi	r24, 0x07	; 7
    1946:	10 f0       	brcs	.+4      	; 0x194c <displayAnimation+0xb4>
    1948:	10 92 2e 03 	sts	0x032E, r1	; 0x80032e <animationStep>
    194c:	08 95       	ret

0000194e <displayHandler>:
    194e:	80 91 2e 03 	lds	r24, 0x032E	; 0x80032e <animationStep>
    1952:	81 11       	cpse	r24, r1
    1954:	0e 94 4c 0c 	call	0x1898	; 0x1898 <displayAnimation>
    1958:	08 95       	ret

0000195a <keyboardInitialize>:
    195a:	89 e0       	ldi	r24, 0x09	; 9
    195c:	80 93 f5 03 	sts	0x03F5, r24	; 0x8003f5 <keyBuffer>
    1960:	81 e0       	ldi	r24, 0x01	; 1
    1962:	80 93 fb 03 	sts	0x03FB, r24	; 0x8003fb <keyboardHandleState>
    1966:	8e ef       	ldi	r24, 0xFE	; 254
    1968:	93 e0       	ldi	r25, 0x03	; 3
    196a:	90 93 f8 03 	sts	0x03F8, r25	; 0x8003f8 <analogPt+0x1>
    196e:	80 93 f7 03 	sts	0x03F7, r24	; 0x8003f7 <analogPt>
    1972:	10 92 f6 03 	sts	0x03F6, r1	; 0x8003f6 <inputCounter>
    1976:	14 c0       	rjmp	.+40     	; 0x19a0 <keyboardInitialize+0x46>
    1978:	e0 91 f7 03 	lds	r30, 0x03F7	; 0x8003f7 <analogPt>
    197c:	f0 91 f8 03 	lds	r31, 0x03F8	; 0x8003f8 <analogPt+0x1>
    1980:	11 82       	std	Z+1, r1	; 0x01
    1982:	10 82       	st	Z, r1
    1984:	80 91 f7 03 	lds	r24, 0x03F7	; 0x8003f7 <analogPt>
    1988:	90 91 f8 03 	lds	r25, 0x03F8	; 0x8003f8 <analogPt+0x1>
    198c:	02 96       	adiw	r24, 0x02	; 2
    198e:	90 93 f8 03 	sts	0x03F8, r25	; 0x8003f8 <analogPt+0x1>
    1992:	80 93 f7 03 	sts	0x03F7, r24	; 0x8003f7 <analogPt>
    1996:	80 91 f6 03 	lds	r24, 0x03F6	; 0x8003f6 <inputCounter>
    199a:	8f 5f       	subi	r24, 0xFF	; 255
    199c:	80 93 f6 03 	sts	0x03F6, r24	; 0x8003f6 <inputCounter>
    19a0:	80 91 f6 03 	lds	r24, 0x03F6	; 0x8003f6 <inputCounter>
    19a4:	86 30       	cpi	r24, 0x06	; 6
    19a6:	40 f3       	brcs	.-48     	; 0x1978 <keyboardInitialize+0x1e>
    19a8:	08 95       	ret

000019aa <getKeyBuffer>:
    19aa:	80 91 f5 03 	lds	r24, 0x03F5	; 0x8003f5 <keyBuffer>
    19ae:	08 95       	ret

000019b0 <positionProcess>:
    19b0:	cf 93       	push	r28
    19b2:	df 93       	push	r29
    19b4:	c0 91 fb 03 	lds	r28, 0x03FB	; 0x8003fb <keyboardHandleState>
    19b8:	c1 30       	cpi	r28, 0x01	; 1
    19ba:	d1 f0       	breq	.+52     	; 0x19f0 <positionProcess+0x40>
    19bc:	38 f0       	brcs	.+14     	; 0x19cc <positionProcess+0x1c>
    19be:	c2 30       	cpi	r28, 0x02	; 2
    19c0:	09 f4       	brne	.+2      	; 0x19c4 <positionProcess+0x14>
    19c2:	7b c0       	rjmp	.+246    	; 0x1aba <positionProcess+0x10a>
    19c4:	c3 30       	cpi	r28, 0x03	; 3
    19c6:	09 f4       	brne	.+2      	; 0x19ca <positionProcess+0x1a>
    19c8:	9e c0       	rjmp	.+316    	; 0x1b06 <positionProcess+0x156>
    19ca:	ed c0       	rjmp	.+474    	; 0x1ba6 <positionProcess+0x1f6>
    19cc:	8e ef       	ldi	r24, 0xFE	; 254
    19ce:	93 e0       	ldi	r25, 0x03	; 3
    19d0:	90 93 f8 03 	sts	0x03F8, r25	; 0x8003f8 <analogPt+0x1>
    19d4:	80 93 f7 03 	sts	0x03F7, r24	; 0x8003f7 <analogPt>
    19d8:	10 92 09 04 	sts	0x0409, r1	; 0x800409 <variationAccumulator+0x1>
    19dc:	10 92 08 04 	sts	0x0408, r1	; 0x800408 <variationAccumulator>
    19e0:	10 92 fd 03 	sts	0x03FD, r1	; 0x8003fd <analogInputAccumulator+0x1>
    19e4:	10 92 fc 03 	sts	0x03FC, r1	; 0x8003fc <analogInputAccumulator>
    19e8:	cf 5f       	subi	r28, 0xFF	; 255
    19ea:	c0 93 fb 03 	sts	0x03FB, r28	; 0x8003fb <keyboardHandleState>
    19ee:	dd c0       	rjmp	.+442    	; 0x1baa <positionProcess+0x1fa>
    19f0:	80 e0       	ldi	r24, 0x00	; 0
    19f2:	0e 94 a0 10 	call	0x2140	; 0x2140 <Timer__MsGetStatus>
    19f6:	81 11       	cpse	r24, r1
    19f8:	28 c0       	rjmp	.+80     	; 0x1a4a <positionProcess+0x9a>
    19fa:	c0 91 f6 03 	lds	r28, 0x03F6	; 0x8003f6 <inputCounter>
    19fe:	d0 e0       	ldi	r29, 0x00	; 0
    1a00:	85 e0       	ldi	r24, 0x05	; 5
    1a02:	0e 94 f8 0a 	call	0x15f0	; 0x15f0 <Hal_GetAnalogInput>
    1a06:	cc 0f       	add	r28, r28
    1a08:	dd 1f       	adc	r29, r29
    1a0a:	c2 50       	subi	r28, 0x02	; 2
    1a0c:	dc 4f       	sbci	r29, 0xFC	; 252
    1a0e:	99 83       	std	Y+1, r25	; 0x01
    1a10:	88 83       	st	Y, r24
    1a12:	80 91 f6 03 	lds	r24, 0x03F6	; 0x8003f6 <inputCounter>
    1a16:	e8 2f       	mov	r30, r24
    1a18:	f0 e0       	ldi	r31, 0x00	; 0
    1a1a:	ee 0f       	add	r30, r30
    1a1c:	ff 1f       	adc	r31, r31
    1a1e:	e2 50       	subi	r30, 0x02	; 2
    1a20:	fc 4f       	sbci	r31, 0xFC	; 252
    1a22:	20 81       	ld	r18, Z
    1a24:	31 81       	ldd	r19, Z+1	; 0x01
    1a26:	40 91 fc 03 	lds	r20, 0x03FC	; 0x8003fc <analogInputAccumulator>
    1a2a:	50 91 fd 03 	lds	r21, 0x03FD	; 0x8003fd <analogInputAccumulator+0x1>
    1a2e:	24 0f       	add	r18, r20
    1a30:	35 1f       	adc	r19, r21
    1a32:	30 93 fd 03 	sts	0x03FD, r19	; 0x8003fd <analogInputAccumulator+0x1>
    1a36:	20 93 fc 03 	sts	0x03FC, r18	; 0x8003fc <analogInputAccumulator>
    1a3a:	8f 5f       	subi	r24, 0xFF	; 255
    1a3c:	80 93 f6 03 	sts	0x03F6, r24	; 0x8003f6 <inputCounter>
    1a40:	61 e0       	ldi	r22, 0x01	; 1
    1a42:	70 e0       	ldi	r23, 0x00	; 0
    1a44:	80 e0       	ldi	r24, 0x00	; 0
    1a46:	0e 94 73 10 	call	0x20e6	; 0x20e6 <Timer__MsSet>
    1a4a:	80 91 f6 03 	lds	r24, 0x03F6	; 0x8003f6 <inputCounter>
    1a4e:	85 30       	cpi	r24, 0x05	; 5
    1a50:	08 f4       	brcc	.+2      	; 0x1a54 <positionProcess+0xa4>
    1a52:	ab c0       	rjmp	.+342    	; 0x1baa <positionProcess+0x1fa>
    1a54:	80 91 fb 03 	lds	r24, 0x03FB	; 0x8003fb <keyboardHandleState>
    1a58:	8f 5f       	subi	r24, 0xFF	; 255
    1a5a:	80 93 fb 03 	sts	0x03FB, r24	; 0x8003fb <keyboardHandleState>
    1a5e:	a5 c0       	rjmp	.+330    	; 0x1baa <positionProcess+0x1fa>
    1a60:	a0 91 f7 03 	lds	r26, 0x03F7	; 0x8003f7 <analogPt>
    1a64:	b0 91 f8 03 	lds	r27, 0x03F8	; 0x8003f8 <analogPt+0x1>
    1a68:	fd 01       	movw	r30, r26
    1a6a:	81 91       	ld	r24, Z+
    1a6c:	91 91       	ld	r25, Z+
    1a6e:	90 93 f4 03 	sts	0x03F4, r25	; 0x8003f4 <analogInput+0x1>
    1a72:	80 93 f3 03 	sts	0x03F3, r24	; 0x8003f3 <analogInput>
    1a76:	f0 93 f8 03 	sts	0x03F8, r31	; 0x8003f8 <analogPt+0x1>
    1a7a:	e0 93 f7 03 	sts	0x03F7, r30	; 0x8003f7 <analogPt>
    1a7e:	12 96       	adiw	r26, 0x02	; 2
    1a80:	4d 91       	ld	r20, X+
    1a82:	5c 91       	ld	r21, X
    1a84:	13 97       	sbiw	r26, 0x03	; 3
    1a86:	84 1b       	sub	r24, r20
    1a88:	95 0b       	sbc	r25, r21
    1a8a:	90 93 fa 03 	sts	0x03FA, r25	; 0x8003fa <readVariation+0x1>
    1a8e:	80 93 f9 03 	sts	0x03F9, r24	; 0x8003f9 <readVariation>
    1a92:	ac 01       	movw	r20, r24
    1a94:	99 23       	and	r25, r25
    1a96:	24 f4       	brge	.+8      	; 0x1aa0 <positionProcess+0xf0>
    1a98:	44 27       	eor	r20, r20
    1a9a:	55 27       	eor	r21, r21
    1a9c:	48 1b       	sub	r20, r24
    1a9e:	59 0b       	sbc	r21, r25
    1aa0:	80 91 08 04 	lds	r24, 0x0408	; 0x800408 <variationAccumulator>
    1aa4:	90 91 09 04 	lds	r25, 0x0409	; 0x800409 <variationAccumulator+0x1>
    1aa8:	48 0f       	add	r20, r24
    1aaa:	59 1f       	adc	r21, r25
    1aac:	50 93 09 04 	sts	0x0409, r21	; 0x800409 <variationAccumulator+0x1>
    1ab0:	40 93 08 04 	sts	0x0408, r20	; 0x800408 <variationAccumulator>
    1ab4:	21 50       	subi	r18, 0x01	; 1
    1ab6:	20 93 f6 03 	sts	0x03F6, r18	; 0x8003f6 <inputCounter>
    1aba:	20 91 f6 03 	lds	r18, 0x03F6	; 0x8003f6 <inputCounter>
    1abe:	22 30       	cpi	r18, 0x02	; 2
    1ac0:	78 f6       	brcc	.-98     	; 0x1a60 <positionProcess+0xb0>
    1ac2:	21 50       	subi	r18, 0x01	; 1
    1ac4:	20 93 f6 03 	sts	0x03F6, r18	; 0x8003f6 <inputCounter>
    1ac8:	80 91 08 04 	lds	r24, 0x0408	; 0x800408 <variationAccumulator>
    1acc:	90 91 09 04 	lds	r25, 0x0409	; 0x800409 <variationAccumulator+0x1>
    1ad0:	0a 97       	sbiw	r24, 0x0a	; 10
    1ad2:	8c f4       	brge	.+34     	; 0x1af6 <positionProcess+0x146>
    1ad4:	20 91 fc 03 	lds	r18, 0x03FC	; 0x8003fc <analogInputAccumulator>
    1ad8:	30 91 fd 03 	lds	r19, 0x03FD	; 0x8003fd <analogInputAccumulator+0x1>
    1adc:	ad ec       	ldi	r26, 0xCD	; 205
    1ade:	bc ec       	ldi	r27, 0xCC	; 204
    1ae0:	0e 94 de 10 	call	0x21bc	; 0x21bc <__umulhisi3>
    1ae4:	96 95       	lsr	r25
    1ae6:	87 95       	ror	r24
    1ae8:	96 95       	lsr	r25
    1aea:	87 95       	ror	r24
    1aec:	90 93 f4 03 	sts	0x03F4, r25	; 0x8003f4 <analogInput+0x1>
    1af0:	80 93 f3 03 	sts	0x03F3, r24	; 0x8003f3 <analogInput>
    1af4:	04 c0       	rjmp	.+8      	; 0x1afe <positionProcess+0x14e>
    1af6:	10 92 f4 03 	sts	0x03F4, r1	; 0x8003f4 <analogInput+0x1>
    1afa:	10 92 f3 03 	sts	0x03F3, r1	; 0x8003f3 <analogInput>
    1afe:	cf 5f       	subi	r28, 0xFF	; 255
    1b00:	c0 93 fb 03 	sts	0x03FB, r28	; 0x8003fb <keyboardHandleState>
    1b04:	52 c0       	rjmp	.+164    	; 0x1baa <positionProcess+0x1fa>
    1b06:	80 91 f3 03 	lds	r24, 0x03F3	; 0x8003f3 <analogInput>
    1b0a:	90 91 f4 03 	lds	r25, 0x03F4	; 0x8003f4 <analogInput+0x1>
    1b0e:	89 39       	cpi	r24, 0x99	; 153
    1b10:	23 e0       	ldi	r18, 0x03	; 3
    1b12:	92 07       	cpc	r25, r18
    1b14:	20 f0       	brcs	.+8      	; 0x1b1e <positionProcess+0x16e>
    1b16:	82 e0       	ldi	r24, 0x02	; 2
    1b18:	80 93 f5 03 	sts	0x03F5, r24	; 0x8003f5 <keyBuffer>
    1b1c:	40 c0       	rjmp	.+128    	; 0x1b9e <positionProcess+0x1ee>
    1b1e:	89 34       	cpi	r24, 0x49	; 73
    1b20:	23 e0       	ldi	r18, 0x03	; 3
    1b22:	92 07       	cpc	r25, r18
    1b24:	20 f0       	brcs	.+8      	; 0x1b2e <positionProcess+0x17e>
    1b26:	81 e0       	ldi	r24, 0x01	; 1
    1b28:	80 93 f5 03 	sts	0x03F5, r24	; 0x8003f5 <keyBuffer>
    1b2c:	38 c0       	rjmp	.+112    	; 0x1b9e <positionProcess+0x1ee>
    1b2e:	8d 3b       	cpi	r24, 0xBD	; 189
    1b30:	22 e0       	ldi	r18, 0x02	; 2
    1b32:	92 07       	cpc	r25, r18
    1b34:	18 f0       	brcs	.+6      	; 0x1b3c <positionProcess+0x18c>
    1b36:	10 92 f5 03 	sts	0x03F5, r1	; 0x8003f5 <keyBuffer>
    1b3a:	31 c0       	rjmp	.+98     	; 0x1b9e <positionProcess+0x1ee>
    1b3c:	83 36       	cpi	r24, 0x63	; 99
    1b3e:	22 e0       	ldi	r18, 0x02	; 2
    1b40:	92 07       	cpc	r25, r18
    1b42:	20 f0       	brcs	.+8      	; 0x1b4c <positionProcess+0x19c>
    1b44:	85 e0       	ldi	r24, 0x05	; 5
    1b46:	80 93 f5 03 	sts	0x03F5, r24	; 0x8003f5 <keyBuffer>
    1b4a:	29 c0       	rjmp	.+82     	; 0x1b9e <positionProcess+0x1ee>
    1b4c:	8f 3f       	cpi	r24, 0xFF	; 255
    1b4e:	21 e0       	ldi	r18, 0x01	; 1
    1b50:	92 07       	cpc	r25, r18
    1b52:	20 f0       	brcs	.+8      	; 0x1b5c <positionProcess+0x1ac>
    1b54:	84 e0       	ldi	r24, 0x04	; 4
    1b56:	80 93 f5 03 	sts	0x03F5, r24	; 0x8003f5 <keyBuffer>
    1b5a:	21 c0       	rjmp	.+66     	; 0x1b9e <positionProcess+0x1ee>
    1b5c:	87 38       	cpi	r24, 0x87	; 135
    1b5e:	21 e0       	ldi	r18, 0x01	; 1
    1b60:	92 07       	cpc	r25, r18
    1b62:	20 f0       	brcs	.+8      	; 0x1b6c <positionProcess+0x1bc>
    1b64:	83 e0       	ldi	r24, 0x03	; 3
    1b66:	80 93 f5 03 	sts	0x03F5, r24	; 0x8003f5 <keyBuffer>
    1b6a:	19 c0       	rjmp	.+50     	; 0x1b9e <positionProcess+0x1ee>
    1b6c:	83 32       	cpi	r24, 0x23	; 35
    1b6e:	21 e0       	ldi	r18, 0x01	; 1
    1b70:	92 07       	cpc	r25, r18
    1b72:	20 f0       	brcs	.+8      	; 0x1b7c <positionProcess+0x1cc>
    1b74:	88 e0       	ldi	r24, 0x08	; 8
    1b76:	80 93 f5 03 	sts	0x03F5, r24	; 0x8003f5 <keyBuffer>
    1b7a:	11 c0       	rjmp	.+34     	; 0x1b9e <positionProcess+0x1ee>
    1b7c:	8f 3b       	cpi	r24, 0xBF	; 191
    1b7e:	91 05       	cpc	r25, r1
    1b80:	20 f0       	brcs	.+8      	; 0x1b8a <positionProcess+0x1da>
    1b82:	87 e0       	ldi	r24, 0x07	; 7
    1b84:	80 93 f5 03 	sts	0x03F5, r24	; 0x8003f5 <keyBuffer>
    1b88:	0a c0       	rjmp	.+20     	; 0x1b9e <positionProcess+0x1ee>
    1b8a:	85 36       	cpi	r24, 0x65	; 101
    1b8c:	91 05       	cpc	r25, r1
    1b8e:	20 f0       	brcs	.+8      	; 0x1b98 <positionProcess+0x1e8>
    1b90:	86 e0       	ldi	r24, 0x06	; 6
    1b92:	80 93 f5 03 	sts	0x03F5, r24	; 0x8003f5 <keyBuffer>
    1b96:	03 c0       	rjmp	.+6      	; 0x1b9e <positionProcess+0x1ee>
    1b98:	89 e0       	ldi	r24, 0x09	; 9
    1b9a:	80 93 f5 03 	sts	0x03F5, r24	; 0x8003f5 <keyBuffer>
    1b9e:	cf 5f       	subi	r28, 0xFF	; 255
    1ba0:	c0 93 fb 03 	sts	0x03FB, r28	; 0x8003fb <keyboardHandleState>
    1ba4:	02 c0       	rjmp	.+4      	; 0x1baa <positionProcess+0x1fa>
    1ba6:	10 92 fb 03 	sts	0x03FB, r1	; 0x8003fb <keyboardHandleState>
    1baa:	df 91       	pop	r29
    1bac:	cf 91       	pop	r28
    1bae:	08 95       	ret

00001bb0 <keyboardHander>:
    1bb0:	0e 94 d8 0c 	call	0x19b0	; 0x19b0 <positionProcess>
    1bb4:	08 95       	ret

00001bb6 <rngInit>:
    1bb6:	80 e0       	ldi	r24, 0x00	; 0
    1bb8:	08 c0       	rjmp	.+16     	; 0x1bca <rngInit+0x14>
    1bba:	e8 2f       	mov	r30, r24
    1bbc:	f0 e0       	ldi	r31, 0x00	; 0
    1bbe:	ee 0f       	add	r30, r30
    1bc0:	ff 1f       	adc	r31, r31
    1bc2:	e5 5f       	subi	r30, 0xF5	; 245
    1bc4:	fb 4f       	sbci	r31, 0xFB	; 251
    1bc6:	11 82       	std	Z+1, r1	; 0x01
    1bc8:	8f 5f       	subi	r24, 0xFF	; 255
    1bca:	83 30       	cpi	r24, 0x03	; 3
    1bcc:	b0 f3       	brcs	.-20     	; 0x1bba <rngInit+0x4>
    1bce:	08 95       	ret

00001bd0 <rngHandler>:
    1bd0:	30 e0       	ldi	r19, 0x00	; 0
    1bd2:	1b c0       	rjmp	.+54     	; 0x1c0a <rngHandler+0x3a>
    1bd4:	83 2f       	mov	r24, r19
    1bd6:	90 e0       	ldi	r25, 0x00	; 0
    1bd8:	fc 01       	movw	r30, r24
    1bda:	ee 0f       	add	r30, r30
    1bdc:	ff 1f       	adc	r31, r31
    1bde:	e5 5f       	subi	r30, 0xF5	; 245
    1be0:	fb 4f       	sbci	r31, 0xFB	; 251
    1be2:	21 81       	ldd	r18, Z+1	; 0x01
    1be4:	2f 5f       	subi	r18, 0xFF	; 255
    1be6:	21 83       	std	Z+1, r18	; 0x01
    1be8:	fc 01       	movw	r30, r24
    1bea:	e7 5f       	subi	r30, 0xF7	; 247
    1bec:	fe 4f       	sbci	r31, 0xFE	; 254
    1bee:	40 81       	ld	r20, Z
    1bf0:	42 17       	cp	r20, r18
    1bf2:	50 f4       	brcc	.+20     	; 0x1c08 <rngHandler+0x38>
    1bf4:	fc 01       	movw	r30, r24
    1bf6:	ea 5f       	subi	r30, 0xFA	; 250
    1bf8:	fe 4f       	sbci	r31, 0xFE	; 254
    1bfa:	20 81       	ld	r18, Z
    1bfc:	88 0f       	add	r24, r24
    1bfe:	99 1f       	adc	r25, r25
    1c00:	fc 01       	movw	r30, r24
    1c02:	e5 5f       	subi	r30, 0xF5	; 245
    1c04:	fb 4f       	sbci	r31, 0xFB	; 251
    1c06:	21 83       	std	Z+1, r18	; 0x01
    1c08:	3f 5f       	subi	r19, 0xFF	; 255
    1c0a:	33 30       	cpi	r19, 0x03	; 3
    1c0c:	18 f3       	brcs	.-58     	; 0x1bd4 <rngHandler+0x4>
    1c0e:	08 95       	ret

00001c10 <getRandomNumber>:
    1c10:	e8 2f       	mov	r30, r24
    1c12:	f0 e0       	ldi	r31, 0x00	; 0
    1c14:	ee 0f       	add	r30, r30
    1c16:	ff 1f       	adc	r31, r31
    1c18:	e5 5f       	subi	r30, 0xF5	; 245
    1c1a:	fb 4f       	sbci	r31, 0xFB	; 251
    1c1c:	81 81       	ldd	r24, Z+1	; 0x01
    1c1e:	08 95       	ret

00001c20 <soundInitialize>:
    1c20:	cf 93       	push	r28
    1c22:	df 93       	push	r29
    1c24:	cd b7       	in	r28, 0x3d	; 61
    1c26:	de b7       	in	r29, 0x3e	; 62
    1c28:	e4 97       	sbiw	r28, 0x34	; 52
    1c2a:	0f b6       	in	r0, 0x3f	; 63
    1c2c:	f8 94       	cli
    1c2e:	de bf       	out	0x3e, r29	; 62
    1c30:	0f be       	out	0x3f, r0	; 63
    1c32:	cd bf       	out	0x3d, r28	; 61
    1c34:	10 92 14 04 	sts	0x0414, r1	; 0x800414 <soundStep>
    1c38:	85 e0       	ldi	r24, 0x05	; 5
    1c3a:	80 93 11 04 	sts	0x0411, r24	; 0x800411 <soundType>
    1c3e:	85 e1       	ldi	r24, 0x15	; 21
    1c40:	94 e0       	ldi	r25, 0x04	; 4
    1c42:	90 93 13 04 	sts	0x0413, r25	; 0x800413 <ptSoundDataFirstAddress+0x1>
    1c46:	80 93 12 04 	sts	0x0412, r24	; 0x800412 <ptSoundDataFirstAddress>
    1c4a:	8a e1       	ldi	r24, 0x1A	; 26
    1c4c:	ec e0       	ldi	r30, 0x0C	; 12
    1c4e:	f1 e0       	ldi	r31, 0x01	; 1
    1c50:	de 01       	movw	r26, r28
    1c52:	11 96       	adiw	r26, 0x01	; 1
    1c54:	01 90       	ld	r0, Z+
    1c56:	0d 92       	st	X+, r0
    1c58:	8a 95       	dec	r24
    1c5a:	e1 f7       	brne	.-8      	; 0x1c54 <soundInitialize+0x34>
    1c5c:	8a e1       	ldi	r24, 0x1A	; 26
    1c5e:	e6 e2       	ldi	r30, 0x26	; 38
    1c60:	f1 e0       	ldi	r31, 0x01	; 1
    1c62:	de 01       	movw	r26, r28
    1c64:	5b 96       	adiw	r26, 0x1b	; 27
    1c66:	01 90       	ld	r0, Z+
    1c68:	0d 92       	st	X+, r0
    1c6a:	8a 95       	dec	r24
    1c6c:	e1 f7       	brne	.-8      	; 0x1c66 <soundInitialize+0x46>
    1c6e:	20 e0       	ldi	r18, 0x00	; 0
    1c70:	30 e0       	ldi	r19, 0x00	; 0
    1c72:	e5 e1       	ldi	r30, 0x15	; 21
    1c74:	f4 e0       	ldi	r31, 0x04	; 4
    1c76:	16 c0       	rjmp	.+44     	; 0x1ca4 <soundInitialize+0x84>
    1c78:	30 83       	st	Z, r19
    1c7a:	82 2f       	mov	r24, r18
    1c7c:	90 e0       	ldi	r25, 0x00	; 0
    1c7e:	a1 e0       	ldi	r26, 0x01	; 1
    1c80:	b0 e0       	ldi	r27, 0x00	; 0
    1c82:	ac 0f       	add	r26, r28
    1c84:	bd 1f       	adc	r27, r29
    1c86:	a8 0f       	add	r26, r24
    1c88:	b9 1f       	adc	r27, r25
    1c8a:	4c 91       	ld	r20, X
    1c8c:	41 83       	std	Z+1, r20	; 0x01
    1c8e:	ab e1       	ldi	r26, 0x1B	; 27
    1c90:	b0 e0       	ldi	r27, 0x00	; 0
    1c92:	ac 0f       	add	r26, r28
    1c94:	bd 1f       	adc	r27, r29
    1c96:	a8 0f       	add	r26, r24
    1c98:	b9 1f       	adc	r27, r25
    1c9a:	8c 91       	ld	r24, X
    1c9c:	82 83       	std	Z+2, r24	; 0x02
    1c9e:	33 96       	adiw	r30, 0x03	; 3
    1ca0:	3f 5f       	subi	r19, 0xFF	; 255
    1ca2:	2f 5f       	subi	r18, 0xFF	; 255
    1ca4:	2a 31       	cpi	r18, 0x1A	; 26
    1ca6:	40 f3       	brcs	.-48     	; 0x1c78 <soundInitialize+0x58>
    1ca8:	e4 96       	adiw	r28, 0x34	; 52
    1caa:	0f b6       	in	r0, 0x3f	; 63
    1cac:	f8 94       	cli
    1cae:	de bf       	out	0x3e, r29	; 62
    1cb0:	0f be       	out	0x3f, r0	; 63
    1cb2:	cd bf       	out	0x3d, r28	; 61
    1cb4:	df 91       	pop	r29
    1cb6:	cf 91       	pop	r28
    1cb8:	08 95       	ret

00001cba <soundGetSoundStatus>:
    1cba:	80 91 14 04 	lds	r24, 0x0414	; 0x800414 <soundStep>
    1cbe:	81 11       	cpse	r24, r1
    1cc0:	02 c0       	rjmp	.+4      	; 0x1cc6 <soundGetSoundStatus+0xc>
    1cc2:	81 e0       	ldi	r24, 0x01	; 1
    1cc4:	08 95       	ret
    1cc6:	80 e0       	ldi	r24, 0x00	; 0
    1cc8:	08 95       	ret

00001cca <setSound>:
    1cca:	80 93 11 04 	sts	0x0411, r24	; 0x800411 <soundType>
    1cce:	81 e0       	ldi	r24, 0x01	; 1
    1cd0:	80 93 14 04 	sts	0x0414, r24	; 0x800414 <soundStep>
    1cd4:	08 95       	ret

00001cd6 <soundKeyPressPlayer1>:
    1cd6:	82 e0       	ldi	r24, 0x02	; 2
    1cd8:	0e 94 a0 10 	call	0x2140	; 0x2140 <Timer__MsGetStatus>
    1cdc:	81 11       	cpse	r24, r1
    1cde:	25 c0       	rjmp	.+74     	; 0x1d2a <soundKeyPressPlayer1+0x54>
    1ce0:	80 91 14 04 	lds	r24, 0x0414	; 0x800414 <soundStep>
    1ce4:	81 30       	cpi	r24, 0x01	; 1
    1ce6:	19 f0       	breq	.+6      	; 0x1cee <soundKeyPressPlayer1+0x18>
    1ce8:	82 30       	cpi	r24, 0x02	; 2
    1cea:	89 f0       	breq	.+34     	; 0x1d0e <soundKeyPressPlayer1+0x38>
    1cec:	19 c0       	rjmp	.+50     	; 0x1d20 <soundKeyPressPlayer1+0x4a>
    1cee:	80 e0       	ldi	r24, 0x00	; 0
    1cf0:	98 e0       	ldi	r25, 0x08	; 8
    1cf2:	0e 94 12 0b 	call	0x1624	; 0x1624 <halSetBuzzerFreq>
    1cf6:	81 e0       	ldi	r24, 0x01	; 1
    1cf8:	0e 94 06 0b 	call	0x160c	; 0x160c <Hal__SetBuzzer>
    1cfc:	68 ec       	ldi	r22, 0xC8	; 200
    1cfe:	70 e0       	ldi	r23, 0x00	; 0
    1d00:	82 e0       	ldi	r24, 0x02	; 2
    1d02:	0e 94 73 10 	call	0x20e6	; 0x20e6 <Timer__MsSet>
    1d06:	82 e0       	ldi	r24, 0x02	; 2
    1d08:	80 93 14 04 	sts	0x0414, r24	; 0x800414 <soundStep>
    1d0c:	08 95       	ret
    1d0e:	80 e0       	ldi	r24, 0x00	; 0
    1d10:	0e 94 06 0b 	call	0x160c	; 0x160c <Hal__SetBuzzer>
    1d14:	10 92 14 04 	sts	0x0414, r1	; 0x800414 <soundStep>
    1d18:	85 e0       	ldi	r24, 0x05	; 5
    1d1a:	80 93 11 04 	sts	0x0411, r24	; 0x800411 <soundType>
    1d1e:	08 95       	ret
    1d20:	10 92 14 04 	sts	0x0414, r1	; 0x800414 <soundStep>
    1d24:	85 e0       	ldi	r24, 0x05	; 5
    1d26:	80 93 11 04 	sts	0x0411, r24	; 0x800411 <soundType>
    1d2a:	08 95       	ret

00001d2c <soundKeyPressPlayer2>:
    1d2c:	82 e0       	ldi	r24, 0x02	; 2
    1d2e:	0e 94 a0 10 	call	0x2140	; 0x2140 <Timer__MsGetStatus>
    1d32:	81 11       	cpse	r24, r1
    1d34:	25 c0       	rjmp	.+74     	; 0x1d80 <soundKeyPressPlayer2+0x54>
    1d36:	80 91 14 04 	lds	r24, 0x0414	; 0x800414 <soundStep>
    1d3a:	81 30       	cpi	r24, 0x01	; 1
    1d3c:	19 f0       	breq	.+6      	; 0x1d44 <soundKeyPressPlayer2+0x18>
    1d3e:	82 30       	cpi	r24, 0x02	; 2
    1d40:	89 f0       	breq	.+34     	; 0x1d64 <soundKeyPressPlayer2+0x38>
    1d42:	19 c0       	rjmp	.+50     	; 0x1d76 <soundKeyPressPlayer2+0x4a>
    1d44:	80 e0       	ldi	r24, 0x00	; 0
    1d46:	92 e0       	ldi	r25, 0x02	; 2
    1d48:	0e 94 12 0b 	call	0x1624	; 0x1624 <halSetBuzzerFreq>
    1d4c:	81 e0       	ldi	r24, 0x01	; 1
    1d4e:	0e 94 06 0b 	call	0x160c	; 0x160c <Hal__SetBuzzer>
    1d52:	68 ec       	ldi	r22, 0xC8	; 200
    1d54:	70 e0       	ldi	r23, 0x00	; 0
    1d56:	82 e0       	ldi	r24, 0x02	; 2
    1d58:	0e 94 73 10 	call	0x20e6	; 0x20e6 <Timer__MsSet>
    1d5c:	82 e0       	ldi	r24, 0x02	; 2
    1d5e:	80 93 14 04 	sts	0x0414, r24	; 0x800414 <soundStep>
    1d62:	08 95       	ret
    1d64:	80 e0       	ldi	r24, 0x00	; 0
    1d66:	0e 94 06 0b 	call	0x160c	; 0x160c <Hal__SetBuzzer>
    1d6a:	10 92 14 04 	sts	0x0414, r1	; 0x800414 <soundStep>
    1d6e:	85 e0       	ldi	r24, 0x05	; 5
    1d70:	80 93 11 04 	sts	0x0411, r24	; 0x800411 <soundType>
    1d74:	08 95       	ret
    1d76:	10 92 14 04 	sts	0x0414, r1	; 0x800414 <soundStep>
    1d7a:	85 e0       	ldi	r24, 0x05	; 5
    1d7c:	80 93 11 04 	sts	0x0411, r24	; 0x800411 <soundType>
    1d80:	08 95       	ret

00001d82 <soundPlayer1Win>:
    1d82:	82 e0       	ldi	r24, 0x02	; 2
    1d84:	0e 94 a0 10 	call	0x2140	; 0x2140 <Timer__MsGetStatus>
    1d88:	81 11       	cpse	r24, r1
    1d8a:	6a c0       	rjmp	.+212    	; 0x1e60 <soundPlayer1Win+0xde>
    1d8c:	80 91 14 04 	lds	r24, 0x0414	; 0x800414 <soundStep>
    1d90:	83 30       	cpi	r24, 0x03	; 3
    1d92:	49 f1       	breq	.+82     	; 0x1de6 <soundPlayer1Win+0x64>
    1d94:	28 f4       	brcc	.+10     	; 0x1da0 <soundPlayer1Win+0x1e>
    1d96:	81 30       	cpi	r24, 0x01	; 1
    1d98:	51 f0       	breq	.+20     	; 0x1dae <soundPlayer1Win+0x2c>
    1d9a:	82 30       	cpi	r24, 0x02	; 2
    1d9c:	c1 f0       	breq	.+48     	; 0x1dce <soundPlayer1Win+0x4c>
    1d9e:	58 c0       	rjmp	.+176    	; 0x1e50 <soundPlayer1Win+0xce>
    1da0:	85 30       	cpi	r24, 0x05	; 5
    1da2:	e9 f1       	breq	.+122    	; 0x1e1e <soundPlayer1Win+0x9c>
    1da4:	80 f1       	brcs	.+96     	; 0x1e06 <soundPlayer1Win+0x84>
    1da6:	86 30       	cpi	r24, 0x06	; 6
    1da8:	09 f4       	brne	.+2      	; 0x1dac <soundPlayer1Win+0x2a>
    1daa:	49 c0       	rjmp	.+146    	; 0x1e3e <soundPlayer1Win+0xbc>
    1dac:	51 c0       	rjmp	.+162    	; 0x1e50 <soundPlayer1Win+0xce>
    1dae:	80 e0       	ldi	r24, 0x00	; 0
    1db0:	94 e0       	ldi	r25, 0x04	; 4
    1db2:	0e 94 12 0b 	call	0x1624	; 0x1624 <halSetBuzzerFreq>
    1db6:	81 e0       	ldi	r24, 0x01	; 1
    1db8:	0e 94 06 0b 	call	0x160c	; 0x160c <Hal__SetBuzzer>
    1dbc:	68 ec       	ldi	r22, 0xC8	; 200
    1dbe:	70 e0       	ldi	r23, 0x00	; 0
    1dc0:	82 e0       	ldi	r24, 0x02	; 2
    1dc2:	0e 94 73 10 	call	0x20e6	; 0x20e6 <Timer__MsSet>
    1dc6:	82 e0       	ldi	r24, 0x02	; 2
    1dc8:	80 93 14 04 	sts	0x0414, r24	; 0x800414 <soundStep>
    1dcc:	08 95       	ret
    1dce:	80 e0       	ldi	r24, 0x00	; 0
    1dd0:	0e 94 06 0b 	call	0x160c	; 0x160c <Hal__SetBuzzer>
    1dd4:	64 e6       	ldi	r22, 0x64	; 100
    1dd6:	70 e0       	ldi	r23, 0x00	; 0
    1dd8:	82 e0       	ldi	r24, 0x02	; 2
    1dda:	0e 94 73 10 	call	0x20e6	; 0x20e6 <Timer__MsSet>
    1dde:	83 e0       	ldi	r24, 0x03	; 3
    1de0:	80 93 14 04 	sts	0x0414, r24	; 0x800414 <soundStep>
    1de4:	08 95       	ret
    1de6:	80 e0       	ldi	r24, 0x00	; 0
    1de8:	94 e0       	ldi	r25, 0x04	; 4
    1dea:	0e 94 12 0b 	call	0x1624	; 0x1624 <halSetBuzzerFreq>
    1dee:	81 e0       	ldi	r24, 0x01	; 1
    1df0:	0e 94 06 0b 	call	0x160c	; 0x160c <Hal__SetBuzzer>
    1df4:	68 ec       	ldi	r22, 0xC8	; 200
    1df6:	70 e0       	ldi	r23, 0x00	; 0
    1df8:	82 e0       	ldi	r24, 0x02	; 2
    1dfa:	0e 94 73 10 	call	0x20e6	; 0x20e6 <Timer__MsSet>
    1dfe:	84 e0       	ldi	r24, 0x04	; 4
    1e00:	80 93 14 04 	sts	0x0414, r24	; 0x800414 <soundStep>
    1e04:	08 95       	ret
    1e06:	80 e0       	ldi	r24, 0x00	; 0
    1e08:	0e 94 06 0b 	call	0x160c	; 0x160c <Hal__SetBuzzer>
    1e0c:	64 e6       	ldi	r22, 0x64	; 100
    1e0e:	70 e0       	ldi	r23, 0x00	; 0
    1e10:	82 e0       	ldi	r24, 0x02	; 2
    1e12:	0e 94 73 10 	call	0x20e6	; 0x20e6 <Timer__MsSet>
    1e16:	85 e0       	ldi	r24, 0x05	; 5
    1e18:	80 93 14 04 	sts	0x0414, r24	; 0x800414 <soundStep>
    1e1c:	08 95       	ret
    1e1e:	80 e0       	ldi	r24, 0x00	; 0
    1e20:	98 e0       	ldi	r25, 0x08	; 8
    1e22:	0e 94 12 0b 	call	0x1624	; 0x1624 <halSetBuzzerFreq>
    1e26:	81 e0       	ldi	r24, 0x01	; 1
    1e28:	0e 94 06 0b 	call	0x160c	; 0x160c <Hal__SetBuzzer>
    1e2c:	60 e9       	ldi	r22, 0x90	; 144
    1e2e:	71 e0       	ldi	r23, 0x01	; 1
    1e30:	82 e0       	ldi	r24, 0x02	; 2
    1e32:	0e 94 73 10 	call	0x20e6	; 0x20e6 <Timer__MsSet>
    1e36:	86 e0       	ldi	r24, 0x06	; 6
    1e38:	80 93 14 04 	sts	0x0414, r24	; 0x800414 <soundStep>
    1e3c:	08 95       	ret
    1e3e:	80 e0       	ldi	r24, 0x00	; 0
    1e40:	0e 94 06 0b 	call	0x160c	; 0x160c <Hal__SetBuzzer>
    1e44:	10 92 14 04 	sts	0x0414, r1	; 0x800414 <soundStep>
    1e48:	85 e0       	ldi	r24, 0x05	; 5
    1e4a:	80 93 11 04 	sts	0x0411, r24	; 0x800411 <soundType>
    1e4e:	08 95       	ret
    1e50:	80 e0       	ldi	r24, 0x00	; 0
    1e52:	0e 94 06 0b 	call	0x160c	; 0x160c <Hal__SetBuzzer>
    1e56:	10 92 14 04 	sts	0x0414, r1	; 0x800414 <soundStep>
    1e5a:	85 e0       	ldi	r24, 0x05	; 5
    1e5c:	80 93 11 04 	sts	0x0411, r24	; 0x800411 <soundType>
    1e60:	08 95       	ret

00001e62 <soundPlayer2Win>:
    1e62:	82 e0       	ldi	r24, 0x02	; 2
    1e64:	0e 94 a0 10 	call	0x2140	; 0x2140 <Timer__MsGetStatus>
    1e68:	81 11       	cpse	r24, r1
    1e6a:	6a c0       	rjmp	.+212    	; 0x1f40 <soundPlayer2Win+0xde>
    1e6c:	80 91 14 04 	lds	r24, 0x0414	; 0x800414 <soundStep>
    1e70:	83 30       	cpi	r24, 0x03	; 3
    1e72:	49 f1       	breq	.+82     	; 0x1ec6 <soundPlayer2Win+0x64>
    1e74:	28 f4       	brcc	.+10     	; 0x1e80 <soundPlayer2Win+0x1e>
    1e76:	81 30       	cpi	r24, 0x01	; 1
    1e78:	51 f0       	breq	.+20     	; 0x1e8e <soundPlayer2Win+0x2c>
    1e7a:	82 30       	cpi	r24, 0x02	; 2
    1e7c:	c1 f0       	breq	.+48     	; 0x1eae <soundPlayer2Win+0x4c>
    1e7e:	58 c0       	rjmp	.+176    	; 0x1f30 <soundPlayer2Win+0xce>
    1e80:	85 30       	cpi	r24, 0x05	; 5
    1e82:	e9 f1       	breq	.+122    	; 0x1efe <soundPlayer2Win+0x9c>
    1e84:	80 f1       	brcs	.+96     	; 0x1ee6 <soundPlayer2Win+0x84>
    1e86:	86 30       	cpi	r24, 0x06	; 6
    1e88:	09 f4       	brne	.+2      	; 0x1e8c <soundPlayer2Win+0x2a>
    1e8a:	49 c0       	rjmp	.+146    	; 0x1f1e <soundPlayer2Win+0xbc>
    1e8c:	51 c0       	rjmp	.+162    	; 0x1f30 <soundPlayer2Win+0xce>
    1e8e:	80 e0       	ldi	r24, 0x00	; 0
    1e90:	94 e0       	ldi	r25, 0x04	; 4
    1e92:	0e 94 12 0b 	call	0x1624	; 0x1624 <halSetBuzzerFreq>
    1e96:	81 e0       	ldi	r24, 0x01	; 1
    1e98:	0e 94 06 0b 	call	0x160c	; 0x160c <Hal__SetBuzzer>
    1e9c:	68 ec       	ldi	r22, 0xC8	; 200
    1e9e:	70 e0       	ldi	r23, 0x00	; 0
    1ea0:	82 e0       	ldi	r24, 0x02	; 2
    1ea2:	0e 94 73 10 	call	0x20e6	; 0x20e6 <Timer__MsSet>
    1ea6:	82 e0       	ldi	r24, 0x02	; 2
    1ea8:	80 93 14 04 	sts	0x0414, r24	; 0x800414 <soundStep>
    1eac:	08 95       	ret
    1eae:	80 e0       	ldi	r24, 0x00	; 0
    1eb0:	0e 94 06 0b 	call	0x160c	; 0x160c <Hal__SetBuzzer>
    1eb4:	64 e6       	ldi	r22, 0x64	; 100
    1eb6:	70 e0       	ldi	r23, 0x00	; 0
    1eb8:	82 e0       	ldi	r24, 0x02	; 2
    1eba:	0e 94 73 10 	call	0x20e6	; 0x20e6 <Timer__MsSet>
    1ebe:	83 e0       	ldi	r24, 0x03	; 3
    1ec0:	80 93 14 04 	sts	0x0414, r24	; 0x800414 <soundStep>
    1ec4:	08 95       	ret
    1ec6:	80 e0       	ldi	r24, 0x00	; 0
    1ec8:	94 e0       	ldi	r25, 0x04	; 4
    1eca:	0e 94 12 0b 	call	0x1624	; 0x1624 <halSetBuzzerFreq>
    1ece:	81 e0       	ldi	r24, 0x01	; 1
    1ed0:	0e 94 06 0b 	call	0x160c	; 0x160c <Hal__SetBuzzer>
    1ed4:	68 ec       	ldi	r22, 0xC8	; 200
    1ed6:	70 e0       	ldi	r23, 0x00	; 0
    1ed8:	82 e0       	ldi	r24, 0x02	; 2
    1eda:	0e 94 73 10 	call	0x20e6	; 0x20e6 <Timer__MsSet>
    1ede:	84 e0       	ldi	r24, 0x04	; 4
    1ee0:	80 93 14 04 	sts	0x0414, r24	; 0x800414 <soundStep>
    1ee4:	08 95       	ret
    1ee6:	80 e0       	ldi	r24, 0x00	; 0
    1ee8:	0e 94 06 0b 	call	0x160c	; 0x160c <Hal__SetBuzzer>
    1eec:	64 e6       	ldi	r22, 0x64	; 100
    1eee:	70 e0       	ldi	r23, 0x00	; 0
    1ef0:	82 e0       	ldi	r24, 0x02	; 2
    1ef2:	0e 94 73 10 	call	0x20e6	; 0x20e6 <Timer__MsSet>
    1ef6:	85 e0       	ldi	r24, 0x05	; 5
    1ef8:	80 93 14 04 	sts	0x0414, r24	; 0x800414 <soundStep>
    1efc:	08 95       	ret
    1efe:	80 e0       	ldi	r24, 0x00	; 0
    1f00:	92 e0       	ldi	r25, 0x02	; 2
    1f02:	0e 94 12 0b 	call	0x1624	; 0x1624 <halSetBuzzerFreq>
    1f06:	60 e9       	ldi	r22, 0x90	; 144
    1f08:	71 e0       	ldi	r23, 0x01	; 1
    1f0a:	82 e0       	ldi	r24, 0x02	; 2
    1f0c:	0e 94 73 10 	call	0x20e6	; 0x20e6 <Timer__MsSet>
    1f10:	81 e0       	ldi	r24, 0x01	; 1
    1f12:	0e 94 06 0b 	call	0x160c	; 0x160c <Hal__SetBuzzer>
    1f16:	86 e0       	ldi	r24, 0x06	; 6
    1f18:	80 93 14 04 	sts	0x0414, r24	; 0x800414 <soundStep>
    1f1c:	08 95       	ret
    1f1e:	80 e0       	ldi	r24, 0x00	; 0
    1f20:	0e 94 06 0b 	call	0x160c	; 0x160c <Hal__SetBuzzer>
    1f24:	10 92 14 04 	sts	0x0414, r1	; 0x800414 <soundStep>
    1f28:	85 e0       	ldi	r24, 0x05	; 5
    1f2a:	80 93 11 04 	sts	0x0411, r24	; 0x800411 <soundType>
    1f2e:	08 95       	ret
    1f30:	80 e0       	ldi	r24, 0x00	; 0
    1f32:	0e 94 06 0b 	call	0x160c	; 0x160c <Hal__SetBuzzer>
    1f36:	10 92 14 04 	sts	0x0414, r1	; 0x800414 <soundStep>
    1f3a:	85 e0       	ldi	r24, 0x05	; 5
    1f3c:	80 93 11 04 	sts	0x0411, r24	; 0x800411 <soundType>
    1f40:	08 95       	ret

00001f42 <soundGameDraw>:
    1f42:	82 e0       	ldi	r24, 0x02	; 2
    1f44:	0e 94 a0 10 	call	0x2140	; 0x2140 <Timer__MsGetStatus>
    1f48:	81 11       	cpse	r24, r1
    1f4a:	6a c0       	rjmp	.+212    	; 0x2020 <soundGameDraw+0xde>
    1f4c:	80 91 14 04 	lds	r24, 0x0414	; 0x800414 <soundStep>
    1f50:	83 30       	cpi	r24, 0x03	; 3
    1f52:	49 f1       	breq	.+82     	; 0x1fa6 <soundGameDraw+0x64>
    1f54:	28 f4       	brcc	.+10     	; 0x1f60 <soundGameDraw+0x1e>
    1f56:	81 30       	cpi	r24, 0x01	; 1
    1f58:	51 f0       	breq	.+20     	; 0x1f6e <soundGameDraw+0x2c>
    1f5a:	82 30       	cpi	r24, 0x02	; 2
    1f5c:	c1 f0       	breq	.+48     	; 0x1f8e <soundGameDraw+0x4c>
    1f5e:	58 c0       	rjmp	.+176    	; 0x2010 <soundGameDraw+0xce>
    1f60:	85 30       	cpi	r24, 0x05	; 5
    1f62:	e9 f1       	breq	.+122    	; 0x1fde <soundGameDraw+0x9c>
    1f64:	80 f1       	brcs	.+96     	; 0x1fc6 <soundGameDraw+0x84>
    1f66:	86 30       	cpi	r24, 0x06	; 6
    1f68:	09 f4       	brne	.+2      	; 0x1f6c <soundGameDraw+0x2a>
    1f6a:	49 c0       	rjmp	.+146    	; 0x1ffe <soundGameDraw+0xbc>
    1f6c:	51 c0       	rjmp	.+162    	; 0x2010 <soundGameDraw+0xce>
    1f6e:	80 e0       	ldi	r24, 0x00	; 0
    1f70:	91 e0       	ldi	r25, 0x01	; 1
    1f72:	0e 94 12 0b 	call	0x1624	; 0x1624 <halSetBuzzerFreq>
    1f76:	81 e0       	ldi	r24, 0x01	; 1
    1f78:	0e 94 06 0b 	call	0x160c	; 0x160c <Hal__SetBuzzer>
    1f7c:	60 e9       	ldi	r22, 0x90	; 144
    1f7e:	71 e0       	ldi	r23, 0x01	; 1
    1f80:	82 e0       	ldi	r24, 0x02	; 2
    1f82:	0e 94 73 10 	call	0x20e6	; 0x20e6 <Timer__MsSet>
    1f86:	82 e0       	ldi	r24, 0x02	; 2
    1f88:	80 93 14 04 	sts	0x0414, r24	; 0x800414 <soundStep>
    1f8c:	08 95       	ret
    1f8e:	80 e0       	ldi	r24, 0x00	; 0
    1f90:	0e 94 06 0b 	call	0x160c	; 0x160c <Hal__SetBuzzer>
    1f94:	64 e6       	ldi	r22, 0x64	; 100
    1f96:	70 e0       	ldi	r23, 0x00	; 0
    1f98:	82 e0       	ldi	r24, 0x02	; 2
    1f9a:	0e 94 73 10 	call	0x20e6	; 0x20e6 <Timer__MsSet>
    1f9e:	83 e0       	ldi	r24, 0x03	; 3
    1fa0:	80 93 14 04 	sts	0x0414, r24	; 0x800414 <soundStep>
    1fa4:	08 95       	ret
    1fa6:	80 e8       	ldi	r24, 0x80	; 128
    1fa8:	90 e0       	ldi	r25, 0x00	; 0
    1faa:	0e 94 12 0b 	call	0x1624	; 0x1624 <halSetBuzzerFreq>
    1fae:	81 e0       	ldi	r24, 0x01	; 1
    1fb0:	0e 94 06 0b 	call	0x160c	; 0x160c <Hal__SetBuzzer>
    1fb4:	68 ec       	ldi	r22, 0xC8	; 200
    1fb6:	70 e0       	ldi	r23, 0x00	; 0
    1fb8:	82 e0       	ldi	r24, 0x02	; 2
    1fba:	0e 94 73 10 	call	0x20e6	; 0x20e6 <Timer__MsSet>
    1fbe:	84 e0       	ldi	r24, 0x04	; 4
    1fc0:	80 93 14 04 	sts	0x0414, r24	; 0x800414 <soundStep>
    1fc4:	08 95       	ret
    1fc6:	80 e0       	ldi	r24, 0x00	; 0
    1fc8:	0e 94 06 0b 	call	0x160c	; 0x160c <Hal__SetBuzzer>
    1fcc:	64 e6       	ldi	r22, 0x64	; 100
    1fce:	70 e0       	ldi	r23, 0x00	; 0
    1fd0:	82 e0       	ldi	r24, 0x02	; 2
    1fd2:	0e 94 73 10 	call	0x20e6	; 0x20e6 <Timer__MsSet>
    1fd6:	85 e0       	ldi	r24, 0x05	; 5
    1fd8:	80 93 14 04 	sts	0x0414, r24	; 0x800414 <soundStep>
    1fdc:	08 95       	ret
    1fde:	80 e8       	ldi	r24, 0x80	; 128
    1fe0:	90 e0       	ldi	r25, 0x00	; 0
    1fe2:	0e 94 12 0b 	call	0x1624	; 0x1624 <halSetBuzzerFreq>
    1fe6:	68 ec       	ldi	r22, 0xC8	; 200
    1fe8:	70 e0       	ldi	r23, 0x00	; 0
    1fea:	82 e0       	ldi	r24, 0x02	; 2
    1fec:	0e 94 73 10 	call	0x20e6	; 0x20e6 <Timer__MsSet>
    1ff0:	81 e0       	ldi	r24, 0x01	; 1
    1ff2:	0e 94 06 0b 	call	0x160c	; 0x160c <Hal__SetBuzzer>
    1ff6:	86 e0       	ldi	r24, 0x06	; 6
    1ff8:	80 93 14 04 	sts	0x0414, r24	; 0x800414 <soundStep>
    1ffc:	08 95       	ret
    1ffe:	80 e0       	ldi	r24, 0x00	; 0
    2000:	0e 94 06 0b 	call	0x160c	; 0x160c <Hal__SetBuzzer>
    2004:	10 92 14 04 	sts	0x0414, r1	; 0x800414 <soundStep>
    2008:	85 e0       	ldi	r24, 0x05	; 5
    200a:	80 93 11 04 	sts	0x0411, r24	; 0x800411 <soundType>
    200e:	08 95       	ret
    2010:	80 e0       	ldi	r24, 0x00	; 0
    2012:	0e 94 06 0b 	call	0x160c	; 0x160c <Hal__SetBuzzer>
    2016:	10 92 14 04 	sts	0x0414, r1	; 0x800414 <soundStep>
    201a:	85 e0       	ldi	r24, 0x05	; 5
    201c:	80 93 11 04 	sts	0x0411, r24	; 0x800411 <soundType>
    2020:	08 95       	ret

00002022 <soundHandler>:
    2022:	80 91 11 04 	lds	r24, 0x0411	; 0x800411 <soundType>
    2026:	82 30       	cpi	r24, 0x02	; 2
    2028:	89 f0       	breq	.+34     	; 0x204c <soundHandler+0x2a>
    202a:	28 f4       	brcc	.+10     	; 0x2036 <soundHandler+0x14>
    202c:	88 23       	and	r24, r24
    202e:	41 f0       	breq	.+16     	; 0x2040 <soundHandler+0x1e>
    2030:	81 30       	cpi	r24, 0x01	; 1
    2032:	49 f0       	breq	.+18     	; 0x2046 <soundHandler+0x24>
    2034:	08 95       	ret
    2036:	83 30       	cpi	r24, 0x03	; 3
    2038:	61 f0       	breq	.+24     	; 0x2052 <soundHandler+0x30>
    203a:	84 30       	cpi	r24, 0x04	; 4
    203c:	69 f0       	breq	.+26     	; 0x2058 <soundHandler+0x36>
    203e:	08 95       	ret
    2040:	0e 94 6b 0e 	call	0x1cd6	; 0x1cd6 <soundKeyPressPlayer1>
    2044:	08 95       	ret
    2046:	0e 94 96 0e 	call	0x1d2c	; 0x1d2c <soundKeyPressPlayer2>
    204a:	08 95       	ret
    204c:	0e 94 c1 0e 	call	0x1d82	; 0x1d82 <soundPlayer1Win>
    2050:	08 95       	ret
    2052:	0e 94 31 0f 	call	0x1e62	; 0x1e62 <soundPlayer2Win>
    2056:	08 95       	ret
    2058:	0e 94 a1 0f 	call	0x1f42	; 0x1f42 <soundGameDraw>
    205c:	08 95       	ret

0000205e <Timer__Initialize>:
    205e:	80 e0       	ldi	r24, 0x00	; 0
    2060:	0d c0       	rjmp	.+26     	; 0x207c <Timer__Initialize+0x1e>
    2062:	e8 2f       	mov	r30, r24
    2064:	f0 e0       	ldi	r31, 0x00	; 0
    2066:	9f 01       	movw	r18, r30
    2068:	22 0f       	add	r18, r18
    206a:	33 1f       	adc	r19, r19
    206c:	e2 0f       	add	r30, r18
    206e:	f3 1f       	adc	r31, r19
    2070:	ed 59       	subi	r30, 0x9D	; 157
    2072:	fb 4f       	sbci	r31, 0xFB	; 251
    2074:	10 82       	st	Z, r1
    2076:	12 82       	std	Z+2, r1	; 0x02
    2078:	11 82       	std	Z+1, r1	; 0x01
    207a:	8f 5f       	subi	r24, 0xFF	; 255
    207c:	87 30       	cpi	r24, 0x07	; 7
    207e:	88 f3       	brcs	.-30     	; 0x2062 <Timer__Initialize+0x4>
    2080:	08 95       	ret

00002082 <Timer__MsHandler>:
    2082:	60 91 68 01 	lds	r22, 0x0168	; 0x800168 <__data_end>
    2086:	61 11       	cpse	r22, r1
    2088:	27 c0       	rjmp	.+78     	; 0x20d8 <Timer__MsHandler+0x56>
    208a:	08 95       	ret
    208c:	82 2f       	mov	r24, r18
    208e:	90 e0       	ldi	r25, 0x00	; 0
    2090:	fc 01       	movw	r30, r24
    2092:	ee 0f       	add	r30, r30
    2094:	ff 1f       	adc	r31, r31
    2096:	e8 0f       	add	r30, r24
    2098:	f9 1f       	adc	r31, r25
    209a:	ed 59       	subi	r30, 0x9D	; 157
    209c:	fb 4f       	sbci	r31, 0xFB	; 251
    209e:	30 81       	ld	r19, Z
    20a0:	31 30       	cpi	r19, 0x01	; 1
    20a2:	c1 f4       	brne	.+48     	; 0x20d4 <Timer__MsHandler+0x52>
    20a4:	fc 01       	movw	r30, r24
    20a6:	ee 0f       	add	r30, r30
    20a8:	ff 1f       	adc	r31, r31
    20aa:	e8 0f       	add	r30, r24
    20ac:	f9 1f       	adc	r31, r25
    20ae:	ed 59       	subi	r30, 0x9D	; 157
    20b0:	fb 4f       	sbci	r31, 0xFB	; 251
    20b2:	41 81       	ldd	r20, Z+1	; 0x01
    20b4:	52 81       	ldd	r21, Z+2	; 0x02
    20b6:	41 50       	subi	r20, 0x01	; 1
    20b8:	51 09       	sbc	r21, r1
    20ba:	52 83       	std	Z+2, r21	; 0x02
    20bc:	41 83       	std	Z+1, r20	; 0x01
    20be:	45 2b       	or	r20, r21
    20c0:	49 f4       	brne	.+18     	; 0x20d4 <Timer__MsHandler+0x52>
    20c2:	fc 01       	movw	r30, r24
    20c4:	ee 0f       	add	r30, r30
    20c6:	ff 1f       	adc	r31, r31
    20c8:	8e 0f       	add	r24, r30
    20ca:	9f 1f       	adc	r25, r31
    20cc:	fc 01       	movw	r30, r24
    20ce:	ed 59       	subi	r30, 0x9D	; 157
    20d0:	fb 4f       	sbci	r31, 0xFB	; 251
    20d2:	10 82       	st	Z, r1
    20d4:	2f 5f       	subi	r18, 0xFF	; 255
    20d6:	01 c0       	rjmp	.+2      	; 0x20da <Timer__MsHandler+0x58>
    20d8:	20 e0       	ldi	r18, 0x00	; 0
    20da:	27 30       	cpi	r18, 0x07	; 7
    20dc:	b8 f2       	brcs	.-82     	; 0x208c <Timer__MsHandler+0xa>
    20de:	61 50       	subi	r22, 0x01	; 1
    20e0:	60 93 68 01 	sts	0x0168, r22	; 0x800168 <__data_end>
    20e4:	08 95       	ret

000020e6 <Timer__MsSet>:
    20e6:	87 30       	cpi	r24, 0x07	; 7
    20e8:	d8 f4       	brcc	.+54     	; 0x2120 <Timer__MsSet+0x3a>
    20ea:	61 15       	cp	r22, r1
    20ec:	71 05       	cpc	r23, r1
    20ee:	59 f4       	brne	.+22     	; 0x2106 <Timer__MsSet+0x20>
    20f0:	90 e0       	ldi	r25, 0x00	; 0
    20f2:	fc 01       	movw	r30, r24
    20f4:	ee 0f       	add	r30, r30
    20f6:	ff 1f       	adc	r31, r31
    20f8:	8e 0f       	add	r24, r30
    20fa:	9f 1f       	adc	r25, r31
    20fc:	fc 01       	movw	r30, r24
    20fe:	ed 59       	subi	r30, 0x9D	; 157
    2100:	fb 4f       	sbci	r31, 0xFB	; 251
    2102:	10 82       	st	Z, r1
    2104:	08 95       	ret
    2106:	90 e0       	ldi	r25, 0x00	; 0
    2108:	fc 01       	movw	r30, r24
    210a:	ee 0f       	add	r30, r30
    210c:	ff 1f       	adc	r31, r31
    210e:	8e 0f       	add	r24, r30
    2110:	9f 1f       	adc	r25, r31
    2112:	fc 01       	movw	r30, r24
    2114:	ed 59       	subi	r30, 0x9D	; 157
    2116:	fb 4f       	sbci	r31, 0xFB	; 251
    2118:	72 83       	std	Z+2, r23	; 0x02
    211a:	61 83       	std	Z+1, r22	; 0x01
    211c:	81 e0       	ldi	r24, 0x01	; 1
    211e:	80 83       	st	Z, r24
    2120:	08 95       	ret

00002122 <Timer__MsExpire>:
    2122:	87 30       	cpi	r24, 0x07	; 7
    2124:	60 f4       	brcc	.+24     	; 0x213e <Timer__MsExpire+0x1c>
    2126:	90 e0       	ldi	r25, 0x00	; 0
    2128:	fc 01       	movw	r30, r24
    212a:	ee 0f       	add	r30, r30
    212c:	ff 1f       	adc	r31, r31
    212e:	8e 0f       	add	r24, r30
    2130:	9f 1f       	adc	r25, r31
    2132:	fc 01       	movw	r30, r24
    2134:	ed 59       	subi	r30, 0x9D	; 157
    2136:	fb 4f       	sbci	r31, 0xFB	; 251
    2138:	12 82       	std	Z+2, r1	; 0x02
    213a:	11 82       	std	Z+1, r1	; 0x01
    213c:	10 82       	st	Z, r1
    213e:	08 95       	ret

00002140 <Timer__MsGetStatus>:
    2140:	90 e0       	ldi	r25, 0x00	; 0
    2142:	fc 01       	movw	r30, r24
    2144:	ee 0f       	add	r30, r30
    2146:	ff 1f       	adc	r31, r31
    2148:	8e 0f       	add	r24, r30
    214a:	9f 1f       	adc	r25, r31
    214c:	fc 01       	movw	r30, r24
    214e:	ed 59       	subi	r30, 0x9D	; 157
    2150:	fb 4f       	sbci	r31, 0xFB	; 251
    2152:	80 81       	ld	r24, Z
    2154:	08 95       	ret

00002156 <__vector_13>:
    2156:	1f 92       	push	r1
    2158:	0f 92       	push	r0
    215a:	0f b6       	in	r0, 0x3f	; 63
    215c:	0f 92       	push	r0
    215e:	11 24       	eor	r1, r1
    2160:	8f 93       	push	r24
    2162:	9f 93       	push	r25
    2164:	8f e0       	ldi	r24, 0x0F	; 15
    2166:	9f ef       	ldi	r25, 0xFF	; 255
    2168:	90 93 85 00 	sts	0x0085, r25	; 0x800085 <__TEXT_REGION_LENGTH__+0x7f8085>
    216c:	80 93 84 00 	sts	0x0084, r24	; 0x800084 <__TEXT_REGION_LENGTH__+0x7f8084>
    2170:	80 91 68 01 	lds	r24, 0x0168	; 0x800168 <__data_end>
    2174:	8f 5f       	subi	r24, 0xFF	; 255
    2176:	80 93 68 01 	sts	0x0168, r24	; 0x800168 <__data_end>
    217a:	9f 91       	pop	r25
    217c:	8f 91       	pop	r24
    217e:	0f 90       	pop	r0
    2180:	0f be       	out	0x3f, r0	; 63
    2182:	0f 90       	pop	r0
    2184:	1f 90       	pop	r1
    2186:	18 95       	reti

00002188 <__divmodhi4>:
    2188:	97 fb       	bst	r25, 7
    218a:	07 2e       	mov	r0, r23
    218c:	16 f4       	brtc	.+4      	; 0x2192 <__divmodhi4+0xa>
    218e:	00 94       	com	r0
    2190:	07 d0       	rcall	.+14     	; 0x21a0 <__divmodhi4_neg1>
    2192:	77 fd       	sbrc	r23, 7
    2194:	09 d0       	rcall	.+18     	; 0x21a8 <__divmodhi4_neg2>
    2196:	0e 94 ed 10 	call	0x21da	; 0x21da <__udivmodhi4>
    219a:	07 fc       	sbrc	r0, 7
    219c:	05 d0       	rcall	.+10     	; 0x21a8 <__divmodhi4_neg2>
    219e:	3e f4       	brtc	.+14     	; 0x21ae <__divmodhi4_exit>

000021a0 <__divmodhi4_neg1>:
    21a0:	90 95       	com	r25
    21a2:	81 95       	neg	r24
    21a4:	9f 4f       	sbci	r25, 0xFF	; 255
    21a6:	08 95       	ret

000021a8 <__divmodhi4_neg2>:
    21a8:	70 95       	com	r23
    21aa:	61 95       	neg	r22
    21ac:	7f 4f       	sbci	r23, 0xFF	; 255

000021ae <__divmodhi4_exit>:
    21ae:	08 95       	ret

000021b0 <__tablejump2__>:
    21b0:	ee 0f       	add	r30, r30
    21b2:	ff 1f       	adc	r31, r31
    21b4:	05 90       	lpm	r0, Z+
    21b6:	f4 91       	lpm	r31, Z
    21b8:	e0 2d       	mov	r30, r0
    21ba:	09 94       	ijmp

000021bc <__umulhisi3>:
    21bc:	a2 9f       	mul	r26, r18
    21be:	b0 01       	movw	r22, r0
    21c0:	b3 9f       	mul	r27, r19
    21c2:	c0 01       	movw	r24, r0
    21c4:	a3 9f       	mul	r26, r19
    21c6:	70 0d       	add	r23, r0
    21c8:	81 1d       	adc	r24, r1
    21ca:	11 24       	eor	r1, r1
    21cc:	91 1d       	adc	r25, r1
    21ce:	b2 9f       	mul	r27, r18
    21d0:	70 0d       	add	r23, r0
    21d2:	81 1d       	adc	r24, r1
    21d4:	11 24       	eor	r1, r1
    21d6:	91 1d       	adc	r25, r1
    21d8:	08 95       	ret

000021da <__udivmodhi4>:
    21da:	aa 1b       	sub	r26, r26
    21dc:	bb 1b       	sub	r27, r27
    21de:	51 e1       	ldi	r21, 0x11	; 17
    21e0:	07 c0       	rjmp	.+14     	; 0x21f0 <__udivmodhi4_ep>

000021e2 <__udivmodhi4_loop>:
    21e2:	aa 1f       	adc	r26, r26
    21e4:	bb 1f       	adc	r27, r27
    21e6:	a6 17       	cp	r26, r22
    21e8:	b7 07       	cpc	r27, r23
    21ea:	10 f0       	brcs	.+4      	; 0x21f0 <__udivmodhi4_ep>
    21ec:	a6 1b       	sub	r26, r22
    21ee:	b7 0b       	sbc	r27, r23

000021f0 <__udivmodhi4_ep>:
    21f0:	88 1f       	adc	r24, r24
    21f2:	99 1f       	adc	r25, r25
    21f4:	5a 95       	dec	r21
    21f6:	a9 f7       	brne	.-22     	; 0x21e2 <__udivmodhi4_loop>
    21f8:	80 95       	com	r24
    21fa:	90 95       	com	r25
    21fc:	bc 01       	movw	r22, r24
    21fe:	cd 01       	movw	r24, r26
    2200:	08 95       	ret

00002202 <_exit>:
    2202:	f8 94       	cli

00002204 <__stop_program>:
    2204:	ff cf       	rjmp	.-2      	; 0x2204 <__stop_program>
